"File: demo.c        Assembler  Version HGASM0202      Page 1


   1  0000              ; Generated by holtek-gcc v3.19, Wed Sep 06 23:59:07 2023
   2  0000              ; 
   3  0000              ; Configuration:
   4  0000              ;       without long instruction
   5  0000              ;       Single ROM, Multi-RAM
   6  0000              ;       bits_per_rom_unit:16
   7  0000              ;       with mp1
   8  0000              ;       with tbhp, address(0x9)
   9  0000              ;          Use tabrd-const
  10  0000              ;       
  11  0000              ;       
  12  0000              ;       
  13  0000              ; use 'tabrdc' instead of 'tabrd'
  14  0000              ;       
  15  0000              
  16  0000              #pragma translator "holtek-gcc 4.6.4" "3.19" "build 20130711"
  17  0000              ; Rebuild 718
  18  0000              
  19  0000              ir equ [2]
  20  0000              mp equ [3]
  21  0000              sbp equ [1]
  22  0000              acc equ [5]
  23  0000              bp equ [4]
  24  0000              tblp equ [7]
  25  0000              tbhp equ [9]
  26  0000              status equ [10]
  27  0000              c equ [10].0
  28  0000              ac equ [10].1
  29  0000              z equ [10].2
  30  0000              ov equ [10].3
  31  0000              intc equ [11]
  32  0000              
  33  0000              extern ra:byte
  34  0000              extern rb:byte
  35  0000              extern rc:byte
  36  0000              extern rd:byte
  37  0000              extern re:byte
  38  0000              extern rf:byte
  39  0000              extern rg:byte
  40  0000              extern rh:byte
  41  0000              extern _Crom2Prom:near
  42  0000              extern _Crom2PromNext:near
  43  0000              
  44  0000              RAMBANK 0 @HCCINIT, @HCCINIT0
  45  0000              
  46  0000              RAMBANK 0 @BITDATASEC, @BITDATASEC1
  47  0000              @HCCINIT	.section 'data'
  48  0000              @HCCINIT0	.section 'data'
  49  0000              @BITDATASEC	 .section 'data'
  50  0000              @BITDATASEC1	 .section 'data'
  51  0000              
  52  0000              #pragma debug scope 1 1
  53  0000              	extern __DELAY3:near
  54  0000              	extern __DELAYX3:near
  55  0000              	extern __DELAYX6:near
  56  0000              	extern __DELAYY5:near
  57  0000              	extern __DELAYY3:near
  58  0000              	extern _builtin_holtek_delay_2:byte
  59  0000              ___wdtc equ [26]
"File: demo.ASM      Assembler  Version HGASM0202      Page 2

  60  0000              public _main
  61  0000              #pragma debug scope 2 1

  11  0000              #line 11 "C:\Users\mediv\Nhap\demo\demo.c"
  11  0000              IFDEF WITH_DEFAULT_STARTUP
  11  0000              extern _main_initial0:near
  11  0000              extern _main_startup:near
  11  0000              ENDIF
  11  0000              
  11  0000              ROMBANK 0 @start
  11  0000              @start .section com_l 'code'
  11  0000              _main_startup1:
  11  0000              @start .section com_e 'code'
  11  0000  2800     R  	jmp _main
  11  0001              
  11  0000              _main .section 'code'
  11  0000              _main proc
  11  0000  0025[           local _main_2 db 37 dup(?)
            00
            ]
  11  0025              #pragma debug array 42 8 14 2
  11  0025              #pragma debug array 42 8 14 2
  11  0025              #pragma debug variable 42 2 _main_2+17 "z"
  11  0025              #pragma debug array 43 7 17 2
  11  0025              #pragma debug array 43 7 17 2
  11  0025              #pragma debug variable 43 2 _main_2+0 "text"
  11  0025              #pragma debug array 44 7 6 2
  11  0025              #pragma debug array 44 7 6 2
  11  0025              #pragma debug variable 44 2 _main_2+31 "text2"
  14  0025              #line 14 "C:\Users\mediv\Nhap\demo\demo.c"
  14  0000  0F54        	mov a,84
  14  0001  0080     R  	mov _main_2[0],a
  14  0002  0F61        	mov a,97
  14  0003  0080     R  	mov _main_2[1],a
  14  0004  0F69        	mov a,105
  14  0005  0080     R  	mov _main_2[2],a
  14  0006  0F77        	mov a,119
  14  0007  0080     R  	mov _main_2[3],a
  14  0008  0F61        	mov a,97
  14  0009  0080     R  	mov _main_2[4],a
  14  000A  0F6E        	mov a,110
  14  000B  0080     R  	mov _main_2[5],a
  14  000C  0F43        	mov a,67
  14  000D  0080     R  	mov _main_2[6],a
  14  000E  0F68        	mov a,104
  14  000F  0080     R  	mov _main_2[7],a
  14  0010  0F69        	mov a,105
  14  0011  0080     R  	mov _main_2[8],a
  14  0012  0F70        	mov a,112
  14  0013  0080     R  	mov _main_2[9],a
  14  0014  0F20        	mov a,32
  14  0015  0080     R  	mov _main_2[10],a
  14  0016  0F67        	mov a,103
  14  0017  0080     R  	mov _main_2[11],a
  14  0018  0F67        	mov a,103
  14  0019  0080     R  	mov _main_2[12],a
  14  001A  0F20        	mov a,32
  14  001B  0080     R  	mov _main_2[13],a
  14  001C  0F65        	mov a,101
  14  001D  0080     R  	mov _main_2[14],a
"File: demo.c        Assembler  Version HGASM0202      Page 3

  14  001E  0F7A        	mov a,122
  14  001F  0080     R  	mov _main_2[15],a
  14  0020  1F00     R  	clr _main_2[16]
  15  0021              #line 15 "C:\Users\mediv\Nhap\demo\demo.c"
  15  0021  0F20        	mov a,32
  15  0022  0080     R  	mov _main_2[31],a
  15  0023  0F74        	mov a,116
  15  0024  0080     R  	mov _main_2[32],a
  15  0025  0F20        	mov a,32
  15  0026  0080     R  	mov _main_2[33],a
  15  0027  0F3D        	mov a,61
  15  0028  0080     R  	mov _main_2[34],a
  15  0029  0F20        	mov a,32
  15  002A  0080     R  	mov _main_2[35],a
  15  002B  1F00     R  	clr _main_2[36]
  18  002C              #line 18 "C:\Users\mediv\Nhap\demo\demo.c"
  18  002C  0FAF        	mov a,175
  18  002D  009A        	mov [26],a
  19  002E              #line 19 "C:\Users\mediv\Nhap\demo\demo.c"
  19  002E  2000     E  	call _I2C_Master_Init
  26  002F              #line 26 "C:\Users\mediv\Nhap\demo\demo.c"
  26  002F  2000     E  	call _lcdinit
  27  0030              #line 27 "C:\Users\mediv\Nhap\demo\demo.c"
  27  0030  2000     E  	call _mpu_init
  27  0031              _L2:
  31  0031              #line 31 "C:\Users\mediv\Nhap\demo\demo.c"
  31  0031  0FC8        	mov a,-56
  31  0032  0080     E  	mov __delay_ms_2[0],a
  31  0033  1F00     E  	clr __delay_ms_2[1]
  31  0034  1F00     E  	clr __delay_ms_2[2]
  31  0035  1F00     E  	clr __delay_ms_2[3]
  31  0036  2000     E  	call __delay_ms
  32  0037              #line 32 "C:\Users\mediv\Nhap\demo\demo.c"
  32  0037  1F00     E  	clr _lcdcursor_2[2]
  32  0038  1F00     E  	clr _lcdcursor_2[3]
  32  0039  0F01        	mov a,1
  32  003A  0080     E  	mov _lcdcursor_2[0],a
  32  003B  1F00     E  	clr _lcdcursor_2[1]
  32  003C  2000     E  	call _lcdcursor
  33  003D              #line 33 "C:\Users\mediv\Nhap\demo\demo.c"
  33  003D  0F00     R  	mov a,low offset _main_2
  33  003E  0080     E  	mov ra,a
  33  003F  0F00     R  	mov a,high offset _main_2
  33  0040  0080     E  	mov rb,a
  33  0041  0F1F        	mov a,31
  33  0042  0300     E  	add a,ra
  33  0043  0080     E  	mov _lcdprint_2[0],a
  33  0044  0F00        	mov a,0
  33  0045  1300     E  	adc a,rb
  33  0046  0080     E  	mov _lcdprint_2[1],a
  33  0047  2000     E  	call _lcdprint
  34  0048              #line 34 "C:\Users\mediv\Nhap\demo\demo.c"
  34  0048  0F0D        	mov a,13
  34  0049  0080     E  	mov _I2C_Read_2[2],a
  34  004A  0F00     R  	mov a,low offset _main_2
  34  004B  0080     E  	mov ra,a
  34  004C  0F00     R  	mov a,high offset _main_2
  34  004D  0080     E  	mov rb,a
  34  004E  0F11        	mov a,17
  34  004F  0300     E  	add a,ra
"File: demo.c        Assembler  Version HGASM0202      Page 4

  34  0050  0080     E  	mov _I2C_Read_2[0],a
  34  0051  0F00        	mov a,0
  34  0052  1300     E  	adc a,rb
  34  0053  0080     E  	mov _I2C_Read_2[1],a
  34  0054  2000     E  	call _I2C_Read
  37  0055              #line 37 "C:\Users\mediv\Nhap\demo\demo.c"
  37  0055  0FD0        	mov a,-48
  37  0056  0080     E  	mov __delay_ms_2[0],a
  37  0057  0F07        	mov a,7
  37  0058  0080     E  	mov __delay_ms_2[1],a
  37  0059  1F00     E  	clr __delay_ms_2[2]
  37  005A  1F00     E  	clr __delay_ms_2[3]
  37  005B  2000     E  	call __delay_ms
  42  005C              #line 42 "C:\Users\mediv\Nhap\demo\demo.c"
  42  005C  1F00     E  	clr _lcdcursor_2[2]
  42  005D  1F00     E  	clr _lcdcursor_2[3]
  42  005E  1F00     E  	clr _lcdcursor_2[0]
  42  005F  1F00     E  	clr _lcdcursor_2[1]
  42  0060  2000     E  	call _lcdcursor
  43  0061              #line 43 "C:\Users\mediv\Nhap\demo\demo.c"
  43  0061  0F00     R  	mov a,low offset _main_2
  43  0062  0080     E  	mov _lcdprint_2[0],a
  43  0063  0F00     R  	mov a,high offset _main_2
  43  0064  0080     E  	mov _lcdprint_2[1],a
  43  0065  2000     E  	call _lcdprint
  44  0066              #line 44 "C:\Users\mediv\Nhap\demo\demo.c"
  44  0066  0FE8        	mov a,-24
  44  0067  0080     E  	mov __delay_ms_2[0],a
  44  0068  0F03        	mov a,3
  44  0069  0080     E  	mov __delay_ms_2[1],a
  44  006A  1F00     E  	clr __delay_ms_2[2]
  44  006B  1F00     E  	clr __delay_ms_2[3]
  44  006C  2000     E  	call __delay_ms
  44  006D  2800     R  	jmp _L2
  44  006E  2800     R  	jmp $
  44  006F              _main endp
  44  006F              
  44  006F              @dummy endp
  44  006F              
  44  006F              #line 44 "C:\Users\mediv\Nhap\demo\demo.c"
  44  006F              #pragma debug scope 1 1
  44  006F              #pragma debug struct_end
  44  006F              #pragma debug struct_end
  44  006F              #pragma debug union_end
  44  006F              #pragma debug union_end
  44  006F              #pragma debug variable 46 1 ___wdtc "__wdtc" 1
  11  006F              #line 11 "C:\Users\mediv\Nhap\demo\demo.c"
  11  0000              @code .section at 0 'code'
  11  0000  2800     R  	jmp _main_startup1
  11  0001              
  11  0001              extern _I2C_Master_Init:near
  11  0001              extern _lcdinit:near
  11  0001              extern _mpu_init:near
  11  0001              extern __delay_ms_2:byte
  11  0001              extern __delay_ms:near
  11  0001              extern _lcdcursor_2:byte
  11  0001              extern _lcdcursor:near
  11  0001              extern _lcdprint_2:byte
  11  0001              extern _lcdprint:near
  11  0001              extern _I2C_Read_2:byte
"File: demo.c        Assembler  Version HGASM0202      Page 5

  11  0001              extern _I2C_Read:near
  11  0001              
  11  0001              ; 
  11  0001              ; Generated by holtek-gcc v3.19, Wed Sep 06 23:59:07 2023
  11  0001              ; Rebuild 718
  11  0001              ; end of file


        0 Errors, 0