"File: HT8_I2C_Master.c  Assembler  Version HGASM0202      Page 1


   1  0000              ; Generated by holtek-gcc v3.19, Wed Sep 06 23:59:07 2023
   2  0000              ; 
   3  0000              ; Configuration:
   4  0000              ;       without long instruction
   5  0000              ;       Single ROM, Multi-RAM
   6  0000              ;       bits_per_rom_unit:16
   7  0000              ;       with mp1
   8  0000              ;       with tbhp, address(0x9)
   9  0000              ;          Use tabrd-const
  10  0000              ;       
  11  0000              ;       
  12  0000              ;       
  13  0000              ; use 'tabrdc' instead of 'tabrd'
  14  0000              ;       
  15  0000              
  16  0000              #pragma translator "holtek-gcc 4.6.4" "3.19" "build 20130711"
  17  0000              ; Rebuild 718
  18  0000              
  19  0000              ir equ [2]
  20  0000              mp equ [3]
  21  0000              sbp equ [1]
  22  0000              acc equ [5]
  23  0000              bp equ [4]
  24  0000              tblp equ [7]
  25  0000              tbhp equ [9]
  26  0000              status equ [10]
  27  0000              c equ [10].0
  28  0000              ac equ [10].1
  29  0000              z equ [10].2
  30  0000              ov equ [10].3
  31  0000              intc equ [11]
  32  0000              
  33  0000              extern ra:byte
  34  0000              extern rb:byte
  35  0000              extern rc:byte
  36  0000              extern rd:byte
  37  0000              extern re:byte
  38  0000              extern rf:byte
  39  0000              extern rg:byte
  40  0000              extern rh:byte
  41  0000              extern _Crom2Prom:near
  42  0000              extern _Crom2PromNext:near
  43  0000              
  44  0000              RAMBANK 0 @HCCINIT, @HCCINIT0
  45  0000              
  46  0000              RAMBANK 0 @BITDATASEC, @BITDATASEC1
  47  0000              @HCCINIT	.section 'data'
  48  0000              @HCCINIT0	.section 'data'
  49  0000              @BITDATASEC	 .section 'data'
  50  0000              @BITDATASEC1	 .section 'data'
  51  0000              
  52  0000              #pragma debug scope 1 1
  53  0000              	extern __DELAY3:near
  54  0000              	extern __DELAYX3:near
  55  0000              	extern __DELAYX6:near
  56  0000              	extern __DELAYY5:near
  57  0000              	extern __DELAYY3:near
  58  0000              	extern _builtin_holtek_delay_2:byte
  59  0000              ___cpc equ [62]
"File: HT8_I2C_Master.ASM  Assembler  Version HGASM0202      Page 2

  60  0000              ___pb equ [37]
  61  0000              ___pa equ [20]
  62  0000              ___pbc equ [38]
  63  0000              ___pac equ [21]
  64  0000              ___pbpu equ [39]
  65  0000              ___papu equ [22]
  66  0000              public _I2C_Master_Init
  67  0000              #pragma debug scope 2 1

  45  0000              #line 45 "C:\Users\mediv\Nhap\demo\HT8_I2C_Master.c"
  45  0000              _I2C_Master_Init .section 'code'
  45  0000              _I2C_Master_Init proc
  46  0000              #line 46 "C:\Users\mediv\Nhap\demo\HT8_I2C_Master.c"
  46  0000  37BE        	clr [62].7
  47  0001              #line 47 "C:\Users\mediv\Nhap\demo\HT8_I2C_Master.c"
  47  0001  31BE        	set [62].3
  48  0002              #line 48 "C:\Users\mediv\Nhap\demo\HT8_I2C_Master.c"
  48  0002  3325        	set [37].6
  49  0003              #line 49 "C:\Users\mediv\Nhap\demo\HT8_I2C_Master.c"
  49  0003  3194        	set [20].3
  50  0004              #line 50 "C:\Users\mediv\Nhap\demo\HT8_I2C_Master.c"
  50  0004  3726        	clr [38].6
  51  0005              #line 51 "C:\Users\mediv\Nhap\demo\HT8_I2C_Master.c"
  51  0005  3595        	clr [21].3
  52  0006              #line 52 "C:\Users\mediv\Nhap\demo\HT8_I2C_Master.c"
  52  0006  3327        	set [39].6
  53  0007              #line 53 "C:\Users\mediv\Nhap\demo\HT8_I2C_Master.c"
  53  0007  3196        	set [22].3
  54  0008              #line 54 "C:\Users\mediv\Nhap\demo\HT8_I2C_Master.c"
  54  0008  1F00     R  	clr _I2C_Flag[0]
  54  0009  0003        	ret
  54  000A              _I2C_Master_Init endp
  54  000A              #line 54 "C:\Users\mediv\Nhap\demo\HT8_I2C_Master.c"
  54  000A              #pragma debug scope 1 1
  54  000A              public _I2C_Start
  54  000A              #pragma debug scope 3 1
  65  000A              #line 65 "C:\Users\mediv\Nhap\demo\HT8_I2C_Master.c"
  65  0000              _I2C_Start .section 'code'
  65  0000              _I2C_Start proc
  66  0000              #line 66 "C:\Users\mediv\Nhap\demo\HT8_I2C_Master.c"
  66  0000  3195        	set [21].3
  66  0001  3196        	set [22].3
  66  0002              ;# 66 "C:\Users\mediv\Nhap\demo\HT8_I2C_Master.c" 1
  66  0002              	IF 40>263690
  66  0002              ;# 66 "C:\Users\mediv\Nhap\demo\HT8_I2C_Master.c" 1
  66  0002              	ERRMESSAGE 'the value 40of the argument exceeds the maxinum 263690'
  66  0002              	ENDIF
  66  0002              ;# 66 "C:\Users\mediv\Nhap\demo\HT8_I2C_Master.c" 1
  66  0002              	IF 40<0
  66  0002              ;# 66 "C:\Users\mediv\Nhap\demo\HT8_I2C_Master.c" 1
  66  0002              	ERRMESSAGE 'the value 40 of the argument exceeds the mininum 0'
  66  0002              	ENDIF
  66  0002              ;# 66 "C:\Users\mediv\Nhap\demo\HT8_I2C_Master.c" 1
  66  0002              	IF 40==0
  66  0002              ;# 66 "C:\Users\mediv\Nhap\demo\HT8_I2C_Master.c" 1
  66  0002              	JMP $
  66  0002              	ENDIF
  66  0002              ;# 66 "C:\Users\mediv\Nhap\demo\HT8_I2C_Master.c" 1
  66  0002              	IF 40==1
  66  0002              ;# 66 "C:\Users\mediv\Nhap\demo\HT8_I2C_Master.c" 1
"File: HT8_I2C_Master.c  Assembler  Version HGASM0202      Page 3

  66  0002              	NOP
  66  0002              	ENDIF
  66  0002              ;# 66 "C:\Users\mediv\Nhap\demo\HT8_I2C_Master.c" 1
  66  0002              	IF 40==2
  66  0002              ;# 66 "C:\Users\mediv\Nhap\demo\HT8_I2C_Master.c" 1
  66  0002              	NOP
  66  0002              ;# 66 "C:\Users\mediv\Nhap\demo\HT8_I2C_Master.c" 1
  66  0002              	NOP
  66  0002              	ENDIF
  66  0002              ;# 66 "C:\Users\mediv\Nhap\demo\HT8_I2C_Master.c" 1
  66  0002              	IF 40==3
  66  0002              ;# 66 "C:\Users\mediv\Nhap\demo\HT8_I2C_Master.c" 1
  66  0002              	NOP
  66  0002              ;# 66 "C:\Users\mediv\Nhap\demo\HT8_I2C_Master.c" 1
  66  0002              	NOP
  66  0002              ;# 66 "C:\Users\mediv\Nhap\demo\HT8_I2C_Master.c" 1
  66  0002              	NOP
  66  0002              	ENDIF
  66  0002              ;# 66 "C:\Users\mediv\Nhap\demo\HT8_I2C_Master.c" 1
  66  0002              	IF (40<8) AND (40>3)
  66  0002              ;# 66 "C:\Users\mediv\Nhap\demo\HT8_I2C_Master.c" 1
  66  0002              	CALL __DELAY3 + 7 -40
  66  0002              	ENDIF
  66  0002              ;# 66 "C:\Users\mediv\Nhap\demo\HT8_I2C_Master.c" 1
  66  0002              	IF (40< 0404h) AND (40>7)
  66  0002              ;# 66 "C:\Users\mediv\Nhap\demo\HT8_I2C_Master.c" 1
  66  0002  0F09        	MOV A,40/4-1
  66  0003              ;# 66 "C:\Users\mediv\Nhap\demo\HT8_I2C_Master.c" 1
  66  0003  2000     E  	CALL __DELAYX3 + 3 -(40 MOD 4)
  66  0004              	ENDIF
  66  0004              ;# 66 "C:\Users\mediv\Nhap\demo\HT8_I2C_Master.c" 1
  66  0004              	IF (40< 0x40B) AND (40> 0403h)
  66  0004              ;# 66 "C:\Users\mediv\Nhap\demo\HT8_I2C_Master.c" 1
  66  0004              	MOV A,0 
  66  0004              ;# 66 "C:\Users\mediv\Nhap\demo\HT8_I2C_Master.c" 1
  66  0004              	CALL __DELAYX6 + 0x40a -40
  66  0004              	ENDIF
  66  0004              ;# 66 "C:\Users\mediv\Nhap\demo\HT8_I2C_Master.c" 1
  66  0004              	IF (40 >= 0x40b) AND ((((40-9)%0402h)/4+1)>256)
  66  0004              ;# 66 "C:\Users\mediv\Nhap\demo\HT8_I2C_Master.c" 1
  66  0004              	MOV A,(40-9)/0402h
  66  0004              ;# 66 "C:\Users\mediv\Nhap\demo\HT8_I2C_Master.c" 1
  66  0004              	MOV _builtin_holtek_delay_2,A
  66  0004              ;# 66 "C:\Users\mediv\Nhap\demo\HT8_I2C_Master.c" 1
  66  0004              	MOV A,0
  66  0004              ;# 66 "C:\Users\mediv\Nhap\demo\HT8_I2C_Master.c" 1
  66  0004              	CALL __DELAYY5 +5- (((40-9)%0402h)%6)
  66  0004              	ENDIF
  66  0004              ;# 66 "C:\Users\mediv\Nhap\demo\HT8_I2C_Master.c" 1
  66  0004              	IF (40 >= 0x40b) AND ((((40-9)%0402h)/4+1)<=256)
  66  0004              ;# 66 "C:\Users\mediv\Nhap\demo\HT8_I2C_Master.c" 1
  66  0004              	MOV A,(40-9)/0402h
  66  0004              ;# 66 "C:\Users\mediv\Nhap\demo\HT8_I2C_Master.c" 1
  66  0004              	MOV _builtin_holtek_delay_2,A
  66  0004              ;# 66 "C:\Users\mediv\Nhap\demo\HT8_I2C_Master.c" 1
  66  0004              	MOV A,((40-9)%0402h)/4+1
  66  0004              ;# 66 "C:\Users\mediv\Nhap\demo\HT8_I2C_Master.c" 1
  66  0004              	CALL __DELAYY3 +3-(((40-9)%0402h)%4)
  66  0004              	ENDIF
  67  0004              #line 67 "C:\Users\mediv\Nhap\demo\HT8_I2C_Master.c"
"File: HT8_I2C_Master.c  Assembler  Version HGASM0202      Page 4

  67  0004  3325        	set [37].6
  67  0005              ;# 67 "C:\Users\mediv\Nhap\demo\HT8_I2C_Master.c" 1
  67  0005              	IF 40>263690
  67  0005              ;# 67 "C:\Users\mediv\Nhap\demo\HT8_I2C_Master.c" 1
  67  0005              	ERRMESSAGE 'the value 40of the argument exceeds the maxinum 263690'
  67  0005              	ENDIF
  67  0005              ;# 67 "C:\Users\mediv\Nhap\demo\HT8_I2C_Master.c" 1
  67  0005              	IF 40<0
  67  0005              ;# 67 "C:\Users\mediv\Nhap\demo\HT8_I2C_Master.c" 1
  67  0005              	ERRMESSAGE 'the value 40 of the argument exceeds the mininum 0'
  67  0005              	ENDIF
  67  0005              ;# 67 "C:\Users\mediv\Nhap\demo\HT8_I2C_Master.c" 1
  67  0005              	IF 40==0
  67  0005              ;# 67 "C:\Users\mediv\Nhap\demo\HT8_I2C_Master.c" 1
  67  0005              	JMP $
  67  0005              	ENDIF
  67  0005              ;# 67 "C:\Users\mediv\Nhap\demo\HT8_I2C_Master.c" 1
  67  0005              	IF 40==1
  67  0005              ;# 67 "C:\Users\mediv\Nhap\demo\HT8_I2C_Master.c" 1
  67  0005              	NOP
  67  0005              	ENDIF
  67  0005              ;# 67 "C:\Users\mediv\Nhap\demo\HT8_I2C_Master.c" 1
  67  0005              	IF 40==2
  67  0005              ;# 67 "C:\Users\mediv\Nhap\demo\HT8_I2C_Master.c" 1
  67  0005              	NOP
  67  0005              ;# 67 "C:\Users\mediv\Nhap\demo\HT8_I2C_Master.c" 1
  67  0005              	NOP
  67  0005              	ENDIF
  67  0005              ;# 67 "C:\Users\mediv\Nhap\demo\HT8_I2C_Master.c" 1
  67  0005              	IF 40==3
  67  0005              ;# 67 "C:\Users\mediv\Nhap\demo\HT8_I2C_Master.c" 1
  67  0005              	NOP
  67  0005              ;# 67 "C:\Users\mediv\Nhap\demo\HT8_I2C_Master.c" 1
  67  0005              	NOP
  67  0005              ;# 67 "C:\Users\mediv\Nhap\demo\HT8_I2C_Master.c" 1
  67  0005              	NOP
  67  0005              	ENDIF
  67  0005              ;# 67 "C:\Users\mediv\Nhap\demo\HT8_I2C_Master.c" 1
  67  0005              	IF (40<8) AND (40>3)
  67  0005              ;# 67 "C:\Users\mediv\Nhap\demo\HT8_I2C_Master.c" 1
  67  0005              	CALL __DELAY3 + 7 -40
  67  0005              	ENDIF
  67  0005              ;# 67 "C:\Users\mediv\Nhap\demo\HT8_I2C_Master.c" 1
  67  0005              	IF (40< 0404h) AND (40>7)
  67  0005              ;# 67 "C:\Users\mediv\Nhap\demo\HT8_I2C_Master.c" 1
  67  0005  0F09        	MOV A,40/4-1
  67  0006              ;# 67 "C:\Users\mediv\Nhap\demo\HT8_I2C_Master.c" 1
  67  0006  2000     E  	CALL __DELAYX3 + 3 -(40 MOD 4)
  67  0007              	ENDIF
  67  0007              ;# 67 "C:\Users\mediv\Nhap\demo\HT8_I2C_Master.c" 1
  67  0007              	IF (40< 0x40B) AND (40> 0403h)
  67  0007              ;# 67 "C:\Users\mediv\Nhap\demo\HT8_I2C_Master.c" 1
  67  0007              	MOV A,0 
  67  0007              ;# 67 "C:\Users\mediv\Nhap\demo\HT8_I2C_Master.c" 1
  67  0007              	CALL __DELAYX6 + 0x40a -40
  67  0007              	ENDIF
  67  0007              ;# 67 "C:\Users\mediv\Nhap\demo\HT8_I2C_Master.c" 1
  67  0007              	IF (40 >= 0x40b) AND ((((40-9)%0402h)/4+1)>256)
  67  0007              ;# 67 "C:\Users\mediv\Nhap\demo\HT8_I2C_Master.c" 1
  67  0007              	MOV A,(40-9)/0402h
"File: HT8_I2C_Master.c  Assembler  Version HGASM0202      Page 5

  67  0007              ;# 67 "C:\Users\mediv\Nhap\demo\HT8_I2C_Master.c" 1
  67  0007              	MOV _builtin_holtek_delay_2,A
  67  0007              ;# 67 "C:\Users\mediv\Nhap\demo\HT8_I2C_Master.c" 1
  67  0007              	MOV A,0
  67  0007              ;# 67 "C:\Users\mediv\Nhap\demo\HT8_I2C_Master.c" 1
  67  0007              	CALL __DELAYY5 +5- (((40-9)%0402h)%6)
  67  0007              	ENDIF
  67  0007              ;# 67 "C:\Users\mediv\Nhap\demo\HT8_I2C_Master.c" 1
  67  0007              	IF (40 >= 0x40b) AND ((((40-9)%0402h)/4+1)<=256)
  67  0007              ;# 67 "C:\Users\mediv\Nhap\demo\HT8_I2C_Master.c" 1
  67  0007              	MOV A,(40-9)/0402h
  67  0007              ;# 67 "C:\Users\mediv\Nhap\demo\HT8_I2C_Master.c" 1
  67  0007              	MOV _builtin_holtek_delay_2,A
  67  0007              ;# 67 "C:\Users\mediv\Nhap\demo\HT8_I2C_Master.c" 1
  67  0007              	MOV A,((40-9)%0402h)/4+1
  67  0007              ;# 67 "C:\Users\mediv\Nhap\demo\HT8_I2C_Master.c" 1
  67  0007              	CALL __DELAYY3 +3-(((40-9)%0402h)%4)
  67  0007              	ENDIF
  68  0007              #line 68 "C:\Users\mediv\Nhap\demo\HT8_I2C_Master.c"
  68  0007  3595        	clr [21].3
  68  0008  3594        	clr [20].3
  68  0009              ;# 68 "C:\Users\mediv\Nhap\demo\HT8_I2C_Master.c" 1
  68  0009              	IF 40>263690
  68  0009              ;# 68 "C:\Users\mediv\Nhap\demo\HT8_I2C_Master.c" 1
  68  0009              	ERRMESSAGE 'the value 40of the argument exceeds the maxinum 263690'
  68  0009              	ENDIF
  68  0009              ;# 68 "C:\Users\mediv\Nhap\demo\HT8_I2C_Master.c" 1
  68  0009              	IF 40<0
  68  0009              ;# 68 "C:\Users\mediv\Nhap\demo\HT8_I2C_Master.c" 1
  68  0009              	ERRMESSAGE 'the value 40 of the argument exceeds the mininum 0'
  68  0009              	ENDIF
  68  0009              ;# 68 "C:\Users\mediv\Nhap\demo\HT8_I2C_Master.c" 1
  68  0009              	IF 40==0
  68  0009              ;# 68 "C:\Users\mediv\Nhap\demo\HT8_I2C_Master.c" 1
  68  0009              	JMP $
  68  0009              	ENDIF
  68  0009              ;# 68 "C:\Users\mediv\Nhap\demo\HT8_I2C_Master.c" 1
  68  0009              	IF 40==1
  68  0009              ;# 68 "C:\Users\mediv\Nhap\demo\HT8_I2C_Master.c" 1
  68  0009              	NOP
  68  0009              	ENDIF
  68  0009              ;# 68 "C:\Users\mediv\Nhap\demo\HT8_I2C_Master.c" 1
  68  0009              	IF 40==2
  68  0009              ;# 68 "C:\Users\mediv\Nhap\demo\HT8_I2C_Master.c" 1
  68  0009              	NOP
  68  0009              ;# 68 "C:\Users\mediv\Nhap\demo\HT8_I2C_Master.c" 1
  68  0009              	NOP
  68  0009              	ENDIF
  68  0009              ;# 68 "C:\Users\mediv\Nhap\demo\HT8_I2C_Master.c" 1
  68  0009              	IF 40==3
  68  0009              ;# 68 "C:\Users\mediv\Nhap\demo\HT8_I2C_Master.c" 1
  68  0009              	NOP
  68  0009              ;# 68 "C:\Users\mediv\Nhap\demo\HT8_I2C_Master.c" 1
  68  0009              	NOP
  68  0009              ;# 68 "C:\Users\mediv\Nhap\demo\HT8_I2C_Master.c" 1
  68  0009              	NOP
  68  0009              	ENDIF
  68  0009              ;# 68 "C:\Users\mediv\Nhap\demo\HT8_I2C_Master.c" 1
  68  0009              	IF (40<8) AND (40>3)
  68  0009              ;# 68 "C:\Users\mediv\Nhap\demo\HT8_I2C_Master.c" 1
"File: HT8_I2C_Master.c  Assembler  Version HGASM0202      Page 6

  68  0009              	CALL __DELAY3 + 7 -40
  68  0009              	ENDIF
  68  0009              ;# 68 "C:\Users\mediv\Nhap\demo\HT8_I2C_Master.c" 1
  68  0009              	IF (40< 0404h) AND (40>7)
  68  0009              ;# 68 "C:\Users\mediv\Nhap\demo\HT8_I2C_Master.c" 1
  68  0009  0F09        	MOV A,40/4-1
  68  000A              ;# 68 "C:\Users\mediv\Nhap\demo\HT8_I2C_Master.c" 1
  68  000A  2000     E  	CALL __DELAYX3 + 3 -(40 MOD 4)
  68  000B              	ENDIF
  68  000B              ;# 68 "C:\Users\mediv\Nhap\demo\HT8_I2C_Master.c" 1
  68  000B              	IF (40< 0x40B) AND (40> 0403h)
  68  000B              ;# 68 "C:\Users\mediv\Nhap\demo\HT8_I2C_Master.c" 1
  68  000B              	MOV A,0 
  68  000B              ;# 68 "C:\Users\mediv\Nhap\demo\HT8_I2C_Master.c" 1
  68  000B              	CALL __DELAYX6 + 0x40a -40
  68  000B              	ENDIF
  68  000B              ;# 68 "C:\Users\mediv\Nhap\demo\HT8_I2C_Master.c" 1
  68  000B              	IF (40 >= 0x40b) AND ((((40-9)%0402h)/4+1)>256)
  68  000B              ;# 68 "C:\Users\mediv\Nhap\demo\HT8_I2C_Master.c" 1
  68  000B              	MOV A,(40-9)/0402h
  68  000B              ;# 68 "C:\Users\mediv\Nhap\demo\HT8_I2C_Master.c" 1
  68  000B              	MOV _builtin_holtek_delay_2,A
  68  000B              ;# 68 "C:\Users\mediv\Nhap\demo\HT8_I2C_Master.c" 1
  68  000B              	MOV A,0
  68  000B              ;# 68 "C:\Users\mediv\Nhap\demo\HT8_I2C_Master.c" 1
  68  000B              	CALL __DELAYY5 +5- (((40-9)%0402h)%6)
  68  000B              	ENDIF
  68  000B              ;# 68 "C:\Users\mediv\Nhap\demo\HT8_I2C_Master.c" 1
  68  000B              	IF (40 >= 0x40b) AND ((((40-9)%0402h)/4+1)<=256)
  68  000B              ;# 68 "C:\Users\mediv\Nhap\demo\HT8_I2C_Master.c" 1
  68  000B              	MOV A,(40-9)/0402h
  68  000B              ;# 68 "C:\Users\mediv\Nhap\demo\HT8_I2C_Master.c" 1
  68  000B              	MOV _builtin_holtek_delay_2,A
  68  000B              ;# 68 "C:\Users\mediv\Nhap\demo\HT8_I2C_Master.c" 1
  68  000B              	MOV A,((40-9)%0402h)/4+1
  68  000B              ;# 68 "C:\Users\mediv\Nhap\demo\HT8_I2C_Master.c" 1
  68  000B              	CALL __DELAYY3 +3-(((40-9)%0402h)%4)
  68  000B              	ENDIF
  69  000B              #line 69 "C:\Users\mediv\Nhap\demo\HT8_I2C_Master.c"
  69  000B  3725        	clr [37].6
  69  000C              ;# 69 "C:\Users\mediv\Nhap\demo\HT8_I2C_Master.c" 1
  69  000C              	IF 40>263690
  69  000C              ;# 69 "C:\Users\mediv\Nhap\demo\HT8_I2C_Master.c" 1
  69  000C              	ERRMESSAGE 'the value 40of the argument exceeds the maxinum 263690'
  69  000C              	ENDIF
  69  000C              ;# 69 "C:\Users\mediv\Nhap\demo\HT8_I2C_Master.c" 1
  69  000C              	IF 40<0
  69  000C              ;# 69 "C:\Users\mediv\Nhap\demo\HT8_I2C_Master.c" 1
  69  000C              	ERRMESSAGE 'the value 40 of the argument exceeds the mininum 0'
  69  000C              	ENDIF
  69  000C              ;# 69 "C:\Users\mediv\Nhap\demo\HT8_I2C_Master.c" 1
  69  000C              	IF 40==0
  69  000C              ;# 69 "C:\Users\mediv\Nhap\demo\HT8_I2C_Master.c" 1
  69  000C              	JMP $
  69  000C              	ENDIF
  69  000C              ;# 69 "C:\Users\mediv\Nhap\demo\HT8_I2C_Master.c" 1
  69  000C              	IF 40==1
  69  000C              ;# 69 "C:\Users\mediv\Nhap\demo\HT8_I2C_Master.c" 1
  69  000C              	NOP
  69  000C              	ENDIF
"File: HT8_I2C_Master.c  Assembler  Version HGASM0202      Page 7

  69  000C              ;# 69 "C:\Users\mediv\Nhap\demo\HT8_I2C_Master.c" 1
  69  000C              	IF 40==2
  69  000C              ;# 69 "C:\Users\mediv\Nhap\demo\HT8_I2C_Master.c" 1
  69  000C              	NOP
  69  000C              ;# 69 "C:\Users\mediv\Nhap\demo\HT8_I2C_Master.c" 1
  69  000C              	NOP
  69  000C              	ENDIF
  69  000C              ;# 69 "C:\Users\mediv\Nhap\demo\HT8_I2C_Master.c" 1
  69  000C              	IF 40==3
  69  000C              ;# 69 "C:\Users\mediv\Nhap\demo\HT8_I2C_Master.c" 1
  69  000C              	NOP
  69  000C              ;# 69 "C:\Users\mediv\Nhap\demo\HT8_I2C_Master.c" 1
  69  000C              	NOP
  69  000C              ;# 69 "C:\Users\mediv\Nhap\demo\HT8_I2C_Master.c" 1
  69  000C              	NOP
  69  000C              	ENDIF
  69  000C              ;# 69 "C:\Users\mediv\Nhap\demo\HT8_I2C_Master.c" 1
  69  000C              	IF (40<8) AND (40>3)
  69  000C              ;# 69 "C:\Users\mediv\Nhap\demo\HT8_I2C_Master.c" 1
  69  000C              	CALL __DELAY3 + 7 -40
  69  000C              	ENDIF
  69  000C              ;# 69 "C:\Users\mediv\Nhap\demo\HT8_I2C_Master.c" 1
  69  000C              	IF (40< 0404h) AND (40>7)
  69  000C              ;# 69 "C:\Users\mediv\Nhap\demo\HT8_I2C_Master.c" 1
  69  000C  0F09        	MOV A,40/4-1
  69  000D              ;# 69 "C:\Users\mediv\Nhap\demo\HT8_I2C_Master.c" 1
  69  000D  2000     E  	CALL __DELAYX3 + 3 -(40 MOD 4)
  69  000E              	ENDIF
  69  000E              ;# 69 "C:\Users\mediv\Nhap\demo\HT8_I2C_Master.c" 1
  69  000E              	IF (40< 0x40B) AND (40> 0403h)
  69  000E              ;# 69 "C:\Users\mediv\Nhap\demo\HT8_I2C_Master.c" 1
  69  000E              	MOV A,0 
  69  000E              ;# 69 "C:\Users\mediv\Nhap\demo\HT8_I2C_Master.c" 1
  69  000E              	CALL __DELAYX6 + 0x40a -40
  69  000E              	ENDIF
  69  000E              ;# 69 "C:\Users\mediv\Nhap\demo\HT8_I2C_Master.c" 1
  69  000E              	IF (40 >= 0x40b) AND ((((40-9)%0402h)/4+1)>256)
  69  000E              ;# 69 "C:\Users\mediv\Nhap\demo\HT8_I2C_Master.c" 1
  69  000E              	MOV A,(40-9)/0402h
  69  000E              ;# 69 "C:\Users\mediv\Nhap\demo\HT8_I2C_Master.c" 1
  69  000E              	MOV _builtin_holtek_delay_2,A
  69  000E              ;# 69 "C:\Users\mediv\Nhap\demo\HT8_I2C_Master.c" 1
  69  000E              	MOV A,0
  69  000E              ;# 69 "C:\Users\mediv\Nhap\demo\HT8_I2C_Master.c" 1
  69  000E              	CALL __DELAYY5 +5- (((40-9)%0402h)%6)
  69  000E              	ENDIF
  69  000E              ;# 69 "C:\Users\mediv\Nhap\demo\HT8_I2C_Master.c" 1
  69  000E              	IF (40 >= 0x40b) AND ((((40-9)%0402h)/4+1)<=256)
  69  000E              ;# 69 "C:\Users\mediv\Nhap\demo\HT8_I2C_Master.c" 1
  69  000E              	MOV A,(40-9)/0402h
  69  000E              ;# 69 "C:\Users\mediv\Nhap\demo\HT8_I2C_Master.c" 1
  69  000E              	MOV _builtin_holtek_delay_2,A
  69  000E              ;# 69 "C:\Users\mediv\Nhap\demo\HT8_I2C_Master.c" 1
  69  000E              	MOV A,((40-9)%0402h)/4+1
  69  000E              ;# 69 "C:\Users\mediv\Nhap\demo\HT8_I2C_Master.c" 1
  69  000E              	CALL __DELAYY3 +3-(((40-9)%0402h)%4)
  69  000E              	ENDIF
  70  000E              #line 70 "C:\Users\mediv\Nhap\demo\HT8_I2C_Master.c"
  70  000E              ;# 70 "C:\Users\mediv\Nhap\demo\HT8_I2C_Master.c" 1
  70  000E  0000        	nop
"File: HT8_I2C_Master.c  Assembler  Version HGASM0202      Page 8

  70  000F  0003        	ret
  70  0010              _I2C_Start endp
  70  0010              #line 70 "C:\Users\mediv\Nhap\demo\HT8_I2C_Master.c"
  70  0010              #pragma debug scope 1 1
  70  0010              public _I2C_Stop
  70  0010              #pragma debug scope 4 1
  81  0010              #line 81 "C:\Users\mediv\Nhap\demo\HT8_I2C_Master.c"
  81  0000              _I2C_Stop .section 'code'
  81  0000              _I2C_Stop proc
  83  0000              #line 83 "C:\Users\mediv\Nhap\demo\HT8_I2C_Master.c"
  83  0000  3595        	clr [21].3
  83  0001  3594        	clr [20].3
  83  0002              ;# 83 "C:\Users\mediv\Nhap\demo\HT8_I2C_Master.c" 1
  83  0002              	IF 40>263690
  83  0002              ;# 83 "C:\Users\mediv\Nhap\demo\HT8_I2C_Master.c" 1
  83  0002              	ERRMESSAGE 'the value 40of the argument exceeds the maxinum 263690'
  83  0002              	ENDIF
  83  0002              ;# 83 "C:\Users\mediv\Nhap\demo\HT8_I2C_Master.c" 1
  83  0002              	IF 40<0
  83  0002              ;# 83 "C:\Users\mediv\Nhap\demo\HT8_I2C_Master.c" 1
  83  0002              	ERRMESSAGE 'the value 40 of the argument exceeds the mininum 0'
  83  0002              	ENDIF
  83  0002              ;# 83 "C:\Users\mediv\Nhap\demo\HT8_I2C_Master.c" 1
  83  0002              	IF 40==0
  83  0002              ;# 83 "C:\Users\mediv\Nhap\demo\HT8_I2C_Master.c" 1
  83  0002              	JMP $
  83  0002              	ENDIF
  83  0002              ;# 83 "C:\Users\mediv\Nhap\demo\HT8_I2C_Master.c" 1
  83  0002              	IF 40==1
  83  0002              ;# 83 "C:\Users\mediv\Nhap\demo\HT8_I2C_Master.c" 1
  83  0002              	NOP
  83  0002              	ENDIF
  83  0002              ;# 83 "C:\Users\mediv\Nhap\demo\HT8_I2C_Master.c" 1
  83  0002              	IF 40==2
  83  0002              ;# 83 "C:\Users\mediv\Nhap\demo\HT8_I2C_Master.c" 1
  83  0002              	NOP
  83  0002              ;# 83 "C:\Users\mediv\Nhap\demo\HT8_I2C_Master.c" 1
  83  0002              	NOP
  83  0002              	ENDIF
  83  0002              ;# 83 "C:\Users\mediv\Nhap\demo\HT8_I2C_Master.c" 1
  83  0002              	IF 40==3
  83  0002              ;# 83 "C:\Users\mediv\Nhap\demo\HT8_I2C_Master.c" 1
  83  0002              	NOP
  83  0002              ;# 83 "C:\Users\mediv\Nhap\demo\HT8_I2C_Master.c" 1
  83  0002              	NOP
  83  0002              ;# 83 "C:\Users\mediv\Nhap\demo\HT8_I2C_Master.c" 1
  83  0002              	NOP
  83  0002              	ENDIF
  83  0002              ;# 83 "C:\Users\mediv\Nhap\demo\HT8_I2C_Master.c" 1
  83  0002              	IF (40<8) AND (40>3)
  83  0002              ;# 83 "C:\Users\mediv\Nhap\demo\HT8_I2C_Master.c" 1
  83  0002              	CALL __DELAY3 + 7 -40
  83  0002              	ENDIF
  83  0002              ;# 83 "C:\Users\mediv\Nhap\demo\HT8_I2C_Master.c" 1
  83  0002              	IF (40< 0404h) AND (40>7)
  83  0002              ;# 83 "C:\Users\mediv\Nhap\demo\HT8_I2C_Master.c" 1
  83  0002  0F09        	MOV A,40/4-1
  83  0003              ;# 83 "C:\Users\mediv\Nhap\demo\HT8_I2C_Master.c" 1
  83  0003  2000     E  	CALL __DELAYX3 + 3 -(40 MOD 4)
  83  0004              	ENDIF
"File: HT8_I2C_Master.c  Assembler  Version HGASM0202      Page 9

  83  0004              ;# 83 "C:\Users\mediv\Nhap\demo\HT8_I2C_Master.c" 1
  83  0004              	IF (40< 0x40B) AND (40> 0403h)
  83  0004              ;# 83 "C:\Users\mediv\Nhap\demo\HT8_I2C_Master.c" 1
  83  0004              	MOV A,0 
  83  0004              ;# 83 "C:\Users\mediv\Nhap\demo\HT8_I2C_Master.c" 1
  83  0004              	CALL __DELAYX6 + 0x40a -40
  83  0004              	ENDIF
  83  0004              ;# 83 "C:\Users\mediv\Nhap\demo\HT8_I2C_Master.c" 1
  83  0004              	IF (40 >= 0x40b) AND ((((40-9)%0402h)/4+1)>256)
  83  0004              ;# 83 "C:\Users\mediv\Nhap\demo\HT8_I2C_Master.c" 1
  83  0004              	MOV A,(40-9)/0402h
  83  0004              ;# 83 "C:\Users\mediv\Nhap\demo\HT8_I2C_Master.c" 1
  83  0004              	MOV _builtin_holtek_delay_2,A
  83  0004              ;# 83 "C:\Users\mediv\Nhap\demo\HT8_I2C_Master.c" 1
  83  0004              	MOV A,0
  83  0004              ;# 83 "C:\Users\mediv\Nhap\demo\HT8_I2C_Master.c" 1
  83  0004              	CALL __DELAYY5 +5- (((40-9)%0402h)%6)
  83  0004              	ENDIF
  83  0004              ;# 83 "C:\Users\mediv\Nhap\demo\HT8_I2C_Master.c" 1
  83  0004              	IF (40 >= 0x40b) AND ((((40-9)%0402h)/4+1)<=256)
  83  0004              ;# 83 "C:\Users\mediv\Nhap\demo\HT8_I2C_Master.c" 1
  83  0004              	MOV A,(40-9)/0402h
  83  0004              ;# 83 "C:\Users\mediv\Nhap\demo\HT8_I2C_Master.c" 1
  83  0004              	MOV _builtin_holtek_delay_2,A
  83  0004              ;# 83 "C:\Users\mediv\Nhap\demo\HT8_I2C_Master.c" 1
  83  0004              	MOV A,((40-9)%0402h)/4+1
  83  0004              ;# 83 "C:\Users\mediv\Nhap\demo\HT8_I2C_Master.c" 1
  83  0004              	CALL __DELAYY3 +3-(((40-9)%0402h)%4)
  83  0004              	ENDIF
  84  0004              #line 84 "C:\Users\mediv\Nhap\demo\HT8_I2C_Master.c"
  84  0004  3325        	set [37].6
  84  0005              ;# 84 "C:\Users\mediv\Nhap\demo\HT8_I2C_Master.c" 1
  84  0005              	IF 40>263690
  84  0005              ;# 84 "C:\Users\mediv\Nhap\demo\HT8_I2C_Master.c" 1
  84  0005              	ERRMESSAGE 'the value 40of the argument exceeds the maxinum 263690'
  84  0005              	ENDIF
  84  0005              ;# 84 "C:\Users\mediv\Nhap\demo\HT8_I2C_Master.c" 1
  84  0005              	IF 40<0
  84  0005              ;# 84 "C:\Users\mediv\Nhap\demo\HT8_I2C_Master.c" 1
  84  0005              	ERRMESSAGE 'the value 40 of the argument exceeds the mininum 0'
  84  0005              	ENDIF
  84  0005              ;# 84 "C:\Users\mediv\Nhap\demo\HT8_I2C_Master.c" 1
  84  0005              	IF 40==0
  84  0005              ;# 84 "C:\Users\mediv\Nhap\demo\HT8_I2C_Master.c" 1
  84  0005              	JMP $
  84  0005              	ENDIF
  84  0005              ;# 84 "C:\Users\mediv\Nhap\demo\HT8_I2C_Master.c" 1
  84  0005              	IF 40==1
  84  0005              ;# 84 "C:\Users\mediv\Nhap\demo\HT8_I2C_Master.c" 1
  84  0005              	NOP
  84  0005              	ENDIF
  84  0005              ;# 84 "C:\Users\mediv\Nhap\demo\HT8_I2C_Master.c" 1
  84  0005              	IF 40==2
  84  0005              ;# 84 "C:\Users\mediv\Nhap\demo\HT8_I2C_Master.c" 1
  84  0005              	NOP
  84  0005              ;# 84 "C:\Users\mediv\Nhap\demo\HT8_I2C_Master.c" 1
  84  0005              	NOP
  84  0005              	ENDIF
  84  0005              ;# 84 "C:\Users\mediv\Nhap\demo\HT8_I2C_Master.c" 1
  84  0005              	IF 40==3
"File: HT8_I2C_Master.c  Assembler  Version HGASM0202      Page 10

  84  0005              ;# 84 "C:\Users\mediv\Nhap\demo\HT8_I2C_Master.c" 1
  84  0005              	NOP
  84  0005              ;# 84 "C:\Users\mediv\Nhap\demo\HT8_I2C_Master.c" 1
  84  0005              	NOP
  84  0005              ;# 84 "C:\Users\mediv\Nhap\demo\HT8_I2C_Master.c" 1
  84  0005              	NOP
  84  0005              	ENDIF
  84  0005              ;# 84 "C:\Users\mediv\Nhap\demo\HT8_I2C_Master.c" 1
  84  0005              	IF (40<8) AND (40>3)
  84  0005              ;# 84 "C:\Users\mediv\Nhap\demo\HT8_I2C_Master.c" 1
  84  0005              	CALL __DELAY3 + 7 -40
  84  0005              	ENDIF
  84  0005              ;# 84 "C:\Users\mediv\Nhap\demo\HT8_I2C_Master.c" 1
  84  0005              	IF (40< 0404h) AND (40>7)
  84  0005              ;# 84 "C:\Users\mediv\Nhap\demo\HT8_I2C_Master.c" 1
  84  0005  0F09        	MOV A,40/4-1
  84  0006              ;# 84 "C:\Users\mediv\Nhap\demo\HT8_I2C_Master.c" 1
  84  0006  2000     E  	CALL __DELAYX3 + 3 -(40 MOD 4)
  84  0007              	ENDIF
  84  0007              ;# 84 "C:\Users\mediv\Nhap\demo\HT8_I2C_Master.c" 1
  84  0007              	IF (40< 0x40B) AND (40> 0403h)
  84  0007              ;# 84 "C:\Users\mediv\Nhap\demo\HT8_I2C_Master.c" 1
  84  0007              	MOV A,0 
  84  0007              ;# 84 "C:\Users\mediv\Nhap\demo\HT8_I2C_Master.c" 1
  84  0007              	CALL __DELAYX6 + 0x40a -40
  84  0007              	ENDIF
  84  0007              ;# 84 "C:\Users\mediv\Nhap\demo\HT8_I2C_Master.c" 1
  84  0007              	IF (40 >= 0x40b) AND ((((40-9)%0402h)/4+1)>256)
  84  0007              ;# 84 "C:\Users\mediv\Nhap\demo\HT8_I2C_Master.c" 1
  84  0007              	MOV A,(40-9)/0402h
  84  0007              ;# 84 "C:\Users\mediv\Nhap\demo\HT8_I2C_Master.c" 1
  84  0007              	MOV _builtin_holtek_delay_2,A
  84  0007              ;# 84 "C:\Users\mediv\Nhap\demo\HT8_I2C_Master.c" 1
  84  0007              	MOV A,0
  84  0007              ;# 84 "C:\Users\mediv\Nhap\demo\HT8_I2C_Master.c" 1
  84  0007              	CALL __DELAYY5 +5- (((40-9)%0402h)%6)
  84  0007              	ENDIF
  84  0007              ;# 84 "C:\Users\mediv\Nhap\demo\HT8_I2C_Master.c" 1
  84  0007              	IF (40 >= 0x40b) AND ((((40-9)%0402h)/4+1)<=256)
  84  0007              ;# 84 "C:\Users\mediv\Nhap\demo\HT8_I2C_Master.c" 1
  84  0007              	MOV A,(40-9)/0402h
  84  0007              ;# 84 "C:\Users\mediv\Nhap\demo\HT8_I2C_Master.c" 1
  84  0007              	MOV _builtin_holtek_delay_2,A
  84  0007              ;# 84 "C:\Users\mediv\Nhap\demo\HT8_I2C_Master.c" 1
  84  0007              	MOV A,((40-9)%0402h)/4+1
  84  0007              ;# 84 "C:\Users\mediv\Nhap\demo\HT8_I2C_Master.c" 1
  84  0007              	CALL __DELAYY3 +3-(((40-9)%0402h)%4)
  84  0007              	ENDIF
  85  0007              #line 85 "C:\Users\mediv\Nhap\demo\HT8_I2C_Master.c"
  85  0007  3195        	set [21].3
  85  0008  3196        	set [22].3
  85  0009              ;# 85 "C:\Users\mediv\Nhap\demo\HT8_I2C_Master.c" 1
  85  0009              	IF 40>263690
  85  0009              ;# 85 "C:\Users\mediv\Nhap\demo\HT8_I2C_Master.c" 1
  85  0009              	ERRMESSAGE 'the value 40of the argument exceeds the maxinum 263690'
  85  0009              	ENDIF
  85  0009              ;# 85 "C:\Users\mediv\Nhap\demo\HT8_I2C_Master.c" 1
  85  0009              	IF 40<0
  85  0009              ;# 85 "C:\Users\mediv\Nhap\demo\HT8_I2C_Master.c" 1
  85  0009              	ERRMESSAGE 'the value 40 of the argument exceeds the mininum 0'
"File: HT8_I2C_Master.c  Assembler  Version HGASM0202      Page 11

  85  0009              	ENDIF
  85  0009              ;# 85 "C:\Users\mediv\Nhap\demo\HT8_I2C_Master.c" 1
  85  0009              	IF 40==0
  85  0009              ;# 85 "C:\Users\mediv\Nhap\demo\HT8_I2C_Master.c" 1
  85  0009              	JMP $
  85  0009              	ENDIF
  85  0009              ;# 85 "C:\Users\mediv\Nhap\demo\HT8_I2C_Master.c" 1
  85  0009              	IF 40==1
  85  0009              ;# 85 "C:\Users\mediv\Nhap\demo\HT8_I2C_Master.c" 1
  85  0009              	NOP
  85  0009              	ENDIF
  85  0009              ;# 85 "C:\Users\mediv\Nhap\demo\HT8_I2C_Master.c" 1
  85  0009              	IF 40==2
  85  0009              ;# 85 "C:\Users\mediv\Nhap\demo\HT8_I2C_Master.c" 1
  85  0009              	NOP
  85  0009              ;# 85 "C:\Users\mediv\Nhap\demo\HT8_I2C_Master.c" 1
  85  0009              	NOP
  85  0009              	ENDIF
  85  0009              ;# 85 "C:\Users\mediv\Nhap\demo\HT8_I2C_Master.c" 1
  85  0009              	IF 40==3
  85  0009              ;# 85 "C:\Users\mediv\Nhap\demo\HT8_I2C_Master.c" 1
  85  0009              	NOP
  85  0009              ;# 85 "C:\Users\mediv\Nhap\demo\HT8_I2C_Master.c" 1
  85  0009              	NOP
  85  0009              ;# 85 "C:\Users\mediv\Nhap\demo\HT8_I2C_Master.c" 1
  85  0009              	NOP
  85  0009              	ENDIF
  85  0009              ;# 85 "C:\Users\mediv\Nhap\demo\HT8_I2C_Master.c" 1
  85  0009              	IF (40<8) AND (40>3)
  85  0009              ;# 85 "C:\Users\mediv\Nhap\demo\HT8_I2C_Master.c" 1
  85  0009              	CALL __DELAY3 + 7 -40
  85  0009              	ENDIF
  85  0009              ;# 85 "C:\Users\mediv\Nhap\demo\HT8_I2C_Master.c" 1
  85  0009              	IF (40< 0404h) AND (40>7)
  85  0009              ;# 85 "C:\Users\mediv\Nhap\demo\HT8_I2C_Master.c" 1
  85  0009  0F09        	MOV A,40/4-1
  85  000A              ;# 85 "C:\Users\mediv\Nhap\demo\HT8_I2C_Master.c" 1
  85  000A  2000     E  	CALL __DELAYX3 + 3 -(40 MOD 4)
  85  000B              	ENDIF
  85  000B              ;# 85 "C:\Users\mediv\Nhap\demo\HT8_I2C_Master.c" 1
  85  000B              	IF (40< 0x40B) AND (40> 0403h)
  85  000B              ;# 85 "C:\Users\mediv\Nhap\demo\HT8_I2C_Master.c" 1
  85  000B              	MOV A,0 
  85  000B              ;# 85 "C:\Users\mediv\Nhap\demo\HT8_I2C_Master.c" 1
  85  000B              	CALL __DELAYX6 + 0x40a -40
  85  000B              	ENDIF
  85  000B              ;# 85 "C:\Users\mediv\Nhap\demo\HT8_I2C_Master.c" 1
  85  000B              	IF (40 >= 0x40b) AND ((((40-9)%0402h)/4+1)>256)
  85  000B              ;# 85 "C:\Users\mediv\Nhap\demo\HT8_I2C_Master.c" 1
  85  000B              	MOV A,(40-9)/0402h
  85  000B              ;# 85 "C:\Users\mediv\Nhap\demo\HT8_I2C_Master.c" 1
  85  000B              	MOV _builtin_holtek_delay_2,A
  85  000B              ;# 85 "C:\Users\mediv\Nhap\demo\HT8_I2C_Master.c" 1
  85  000B              	MOV A,0
  85  000B              ;# 85 "C:\Users\mediv\Nhap\demo\HT8_I2C_Master.c" 1
  85  000B              	CALL __DELAYY5 +5- (((40-9)%0402h)%6)
  85  000B              	ENDIF
  85  000B              ;# 85 "C:\Users\mediv\Nhap\demo\HT8_I2C_Master.c" 1
  85  000B              	IF (40 >= 0x40b) AND ((((40-9)%0402h)/4+1)<=256)
  85  000B              ;# 85 "C:\Users\mediv\Nhap\demo\HT8_I2C_Master.c" 1
"File: HT8_I2C_Master.c  Assembler  Version HGASM0202      Page 12

  85  000B              	MOV A,(40-9)/0402h
  85  000B              ;# 85 "C:\Users\mediv\Nhap\demo\HT8_I2C_Master.c" 1
  85  000B              	MOV _builtin_holtek_delay_2,A
  85  000B              ;# 85 "C:\Users\mediv\Nhap\demo\HT8_I2C_Master.c" 1
  85  000B              	MOV A,((40-9)%0402h)/4+1
  85  000B              ;# 85 "C:\Users\mediv\Nhap\demo\HT8_I2C_Master.c" 1
  85  000B              	CALL __DELAYY3 +3-(((40-9)%0402h)%4)
  85  000B              	ENDIF
  85  000B  0003        	ret
  85  000C              _I2C_Stop endp
  85  000C              #line 85 "C:\Users\mediv\Nhap\demo\HT8_I2C_Master.c"
  85  000C              #pragma debug scope 1 1
  85  000C              public _Wr_Byte
  85  000C              #pragma debug scope 5 1
  95  000C              #line 95 "C:\Users\mediv\Nhap\demo\HT8_I2C_Master.c"
  95  0000              _Wr_Byte .section 'code'
  95  0000              _Wr_Byte proc
  95  0000  00              local _Wr_Byte_2 db 1 dup(?)	; 0,1
  95  0000  0080     R  	mov _Wr_Byte_2[0],a
  95  0001              #pragma debug variable 8 5 _Wr_Byte_2+0 "I2CData"
  97  0001              #line 97 "C:\Users\mediv\Nhap\demo\HT8_I2C_Master.c"
  97  0001  3725        	clr [37].6
  97  0002  1F00     E  	clr ra
  96  0003              #line 96 "C:\Users\mediv\Nhap\demo\HT8_I2C_Master.c"
  96  0003  0F80        	mov a,128
  96  0004  0080     E  	mov rb,a
  96  0005              _L8:
 100  0005              #line 100 "C:\Users\mediv\Nhap\demo\HT8_I2C_Master.c"
 100  0005  0700     E  	mov a,rb
 100  0006  0600     R  	and a,_Wr_Byte_2[0]
 100  0007  0080     E  	mov rc,a
 100  0008  1080     E  	sz rc
 100  0009  2800     R  	jmp _LI1
 100  000A  2800     R  	jmp _L5
 100  000B              _LI1:
 101  000B              #line 101 "C:\Users\mediv\Nhap\demo\HT8_I2C_Master.c"
 101  000B  3195        	set [21].3
 101  000C  3196        	set [22].3
 101  000D  2800     R  	jmp _L6
 101  000E              _L5:
 103  000E              #line 103 "C:\Users\mediv\Nhap\demo\HT8_I2C_Master.c"
 103  000E  3595        	clr [21].3
 103  000F  3594        	clr [20].3
 103  0010              _L6:
 105  0010              #line 105 "C:\Users\mediv\Nhap\demo\HT8_I2C_Master.c"
 105  0010              ;# 105 "C:\Users\mediv\Nhap\demo\HT8_I2C_Master.c" 1
 105  0010              	IF 40/2>263690
 105  0010              ;# 105 "C:\Users\mediv\Nhap\demo\HT8_I2C_Master.c" 1
 105  0010              	ERRMESSAGE 'the value 40/2of the argument exceeds the maxinum 263690'
 105  0010              	ENDIF
 105  0010              ;# 105 "C:\Users\mediv\Nhap\demo\HT8_I2C_Master.c" 1
 105  0010              	IF 40/2<0
 105  0010              ;# 105 "C:\Users\mediv\Nhap\demo\HT8_I2C_Master.c" 1
 105  0010              	ERRMESSAGE 'the value 40/2 of the argument exceeds the mininum 0'
 105  0010              	ENDIF
 105  0010              ;# 105 "C:\Users\mediv\Nhap\demo\HT8_I2C_Master.c" 1
 105  0010              	IF 40/2==0
 105  0010              ;# 105 "C:\Users\mediv\Nhap\demo\HT8_I2C_Master.c" 1
 105  0010              	JMP $
 105  0010              	ENDIF
"File: HT8_I2C_Master.c  Assembler  Version HGASM0202      Page 13

 105  0010              ;# 105 "C:\Users\mediv\Nhap\demo\HT8_I2C_Master.c" 1
 105  0010              	IF 40/2==1
 105  0010              ;# 105 "C:\Users\mediv\Nhap\demo\HT8_I2C_Master.c" 1
 105  0010              	NOP
 105  0010              	ENDIF
 105  0010              ;# 105 "C:\Users\mediv\Nhap\demo\HT8_I2C_Master.c" 1
 105  0010              	IF 40/2==2
 105  0010              ;# 105 "C:\Users\mediv\Nhap\demo\HT8_I2C_Master.c" 1
 105  0010              	NOP
 105  0010              ;# 105 "C:\Users\mediv\Nhap\demo\HT8_I2C_Master.c" 1
 105  0010              	NOP
 105  0010              	ENDIF
 105  0010              ;# 105 "C:\Users\mediv\Nhap\demo\HT8_I2C_Master.c" 1
 105  0010              	IF 40/2==3
 105  0010              ;# 105 "C:\Users\mediv\Nhap\demo\HT8_I2C_Master.c" 1
 105  0010              	NOP
 105  0010              ;# 105 "C:\Users\mediv\Nhap\demo\HT8_I2C_Master.c" 1
 105  0010              	NOP
 105  0010              ;# 105 "C:\Users\mediv\Nhap\demo\HT8_I2C_Master.c" 1
 105  0010              	NOP
 105  0010              	ENDIF
 105  0010              ;# 105 "C:\Users\mediv\Nhap\demo\HT8_I2C_Master.c" 1
 105  0010              	IF (40/2<8) AND (40/2>3)
 105  0010              ;# 105 "C:\Users\mediv\Nhap\demo\HT8_I2C_Master.c" 1
 105  0010              	CALL __DELAY3 + 7 -40/2
 105  0010              	ENDIF
 105  0010              ;# 105 "C:\Users\mediv\Nhap\demo\HT8_I2C_Master.c" 1
 105  0010              	IF (40/2< 0404h) AND (40/2>7)
 105  0010              ;# 105 "C:\Users\mediv\Nhap\demo\HT8_I2C_Master.c" 1
 105  0010  0F04        	MOV A,40/2/4-1
 105  0011              ;# 105 "C:\Users\mediv\Nhap\demo\HT8_I2C_Master.c" 1
 105  0011  2000     E  	CALL __DELAYX3 + 3 -(40/2 MOD 4)
 105  0012              	ENDIF
 105  0012              ;# 105 "C:\Users\mediv\Nhap\demo\HT8_I2C_Master.c" 1
 105  0012              	IF (40/2< 0x40B) AND (40/2> 0403h)
 105  0012              ;# 105 "C:\Users\mediv\Nhap\demo\HT8_I2C_Master.c" 1
 105  0012              	MOV A,0 
 105  0012              ;# 105 "C:\Users\mediv\Nhap\demo\HT8_I2C_Master.c" 1
 105  0012              	CALL __DELAYX6 + 0x40a -40/2
 105  0012              	ENDIF
 105  0012              ;# 105 "C:\Users\mediv\Nhap\demo\HT8_I2C_Master.c" 1
 105  0012              	IF (40/2 >= 0x40b) AND ((((40/2-9)%0402h)/4+1)>256)
 105  0012              ;# 105 "C:\Users\mediv\Nhap\demo\HT8_I2C_Master.c" 1
 105  0012              	MOV A,(40/2-9)/0402h
 105  0012              ;# 105 "C:\Users\mediv\Nhap\demo\HT8_I2C_Master.c" 1
 105  0012              	MOV _builtin_holtek_delay_2,A
 105  0012              ;# 105 "C:\Users\mediv\Nhap\demo\HT8_I2C_Master.c" 1
 105  0012              	MOV A,0
 105  0012              ;# 105 "C:\Users\mediv\Nhap\demo\HT8_I2C_Master.c" 1
 105  0012              	CALL __DELAYY5 +5- (((40/2-9)%0402h)%6)
 105  0012              	ENDIF
 105  0012              ;# 105 "C:\Users\mediv\Nhap\demo\HT8_I2C_Master.c" 1
 105  0012              	IF (40/2 >= 0x40b) AND ((((40/2-9)%0402h)/4+1)<=256)
 105  0012              ;# 105 "C:\Users\mediv\Nhap\demo\HT8_I2C_Master.c" 1
 105  0012              	MOV A,(40/2-9)/0402h
 105  0012              ;# 105 "C:\Users\mediv\Nhap\demo\HT8_I2C_Master.c" 1
 105  0012              	MOV _builtin_holtek_delay_2,A
 105  0012              ;# 105 "C:\Users\mediv\Nhap\demo\HT8_I2C_Master.c" 1
 105  0012              	MOV A,((40/2-9)%0402h)/4+1
 105  0012              ;# 105 "C:\Users\mediv\Nhap\demo\HT8_I2C_Master.c" 1
"File: HT8_I2C_Master.c  Assembler  Version HGASM0202      Page 14

 105  0012              	CALL __DELAYY3 +3-(((40/2-9)%0402h)%4)
 105  0012              	ENDIF
 106  0012              #line 106 "C:\Users\mediv\Nhap\demo\HT8_I2C_Master.c"
 106  0012  3325        	set [37].6
 106  0013              ;# 106 "C:\Users\mediv\Nhap\demo\HT8_I2C_Master.c" 1
 106  0013              	IF 40>263690
 106  0013              ;# 106 "C:\Users\mediv\Nhap\demo\HT8_I2C_Master.c" 1
 106  0013              	ERRMESSAGE 'the value 40of the argument exceeds the maxinum 263690'
 106  0013              	ENDIF
 106  0013              ;# 106 "C:\Users\mediv\Nhap\demo\HT8_I2C_Master.c" 1
 106  0013              	IF 40<0
 106  0013              ;# 106 "C:\Users\mediv\Nhap\demo\HT8_I2C_Master.c" 1
 106  0013              	ERRMESSAGE 'the value 40 of the argument exceeds the mininum 0'
 106  0013              	ENDIF
 106  0013              ;# 106 "C:\Users\mediv\Nhap\demo\HT8_I2C_Master.c" 1
 106  0013              	IF 40==0
 106  0013              ;# 106 "C:\Users\mediv\Nhap\demo\HT8_I2C_Master.c" 1
 106  0013              	JMP $
 106  0013              	ENDIF
 106  0013              ;# 106 "C:\Users\mediv\Nhap\demo\HT8_I2C_Master.c" 1
 106  0013              	IF 40==1
 106  0013              ;# 106 "C:\Users\mediv\Nhap\demo\HT8_I2C_Master.c" 1
 106  0013              	NOP
 106  0013              	ENDIF
 106  0013              ;# 106 "C:\Users\mediv\Nhap\demo\HT8_I2C_Master.c" 1
 106  0013              	IF 40==2
 106  0013              ;# 106 "C:\Users\mediv\Nhap\demo\HT8_I2C_Master.c" 1
 106  0013              	NOP
 106  0013              ;# 106 "C:\Users\mediv\Nhap\demo\HT8_I2C_Master.c" 1
 106  0013              	NOP
 106  0013              	ENDIF
 106  0013              ;# 106 "C:\Users\mediv\Nhap\demo\HT8_I2C_Master.c" 1
 106  0013              	IF 40==3
 106  0013              ;# 106 "C:\Users\mediv\Nhap\demo\HT8_I2C_Master.c" 1
 106  0013              	NOP
 106  0013              ;# 106 "C:\Users\mediv\Nhap\demo\HT8_I2C_Master.c" 1
 106  0013              	NOP
 106  0013              ;# 106 "C:\Users\mediv\Nhap\demo\HT8_I2C_Master.c" 1
 106  0013              	NOP
 106  0013              	ENDIF
 106  0013              ;# 106 "C:\Users\mediv\Nhap\demo\HT8_I2C_Master.c" 1
 106  0013              	IF (40<8) AND (40>3)
 106  0013              ;# 106 "C:\Users\mediv\Nhap\demo\HT8_I2C_Master.c" 1
 106  0013              	CALL __DELAY3 + 7 -40
 106  0013              	ENDIF
 106  0013              ;# 106 "C:\Users\mediv\Nhap\demo\HT8_I2C_Master.c" 1
 106  0013              	IF (40< 0404h) AND (40>7)
 106  0013              ;# 106 "C:\Users\mediv\Nhap\demo\HT8_I2C_Master.c" 1
 106  0013  0F09        	MOV A,40/4-1
 106  0014              ;# 106 "C:\Users\mediv\Nhap\demo\HT8_I2C_Master.c" 1
 106  0014  2000     E  	CALL __DELAYX3 + 3 -(40 MOD 4)
 106  0015              	ENDIF
 106  0015              ;# 106 "C:\Users\mediv\Nhap\demo\HT8_I2C_Master.c" 1
 106  0015              	IF (40< 0x40B) AND (40> 0403h)
 106  0015              ;# 106 "C:\Users\mediv\Nhap\demo\HT8_I2C_Master.c" 1
 106  0015              	MOV A,0 
 106  0015              ;# 106 "C:\Users\mediv\Nhap\demo\HT8_I2C_Master.c" 1
 106  0015              	CALL __DELAYX6 + 0x40a -40
 106  0015              	ENDIF
 106  0015              ;# 106 "C:\Users\mediv\Nhap\demo\HT8_I2C_Master.c" 1
"File: HT8_I2C_Master.c  Assembler  Version HGASM0202      Page 15

 106  0015              	IF (40 >= 0x40b) AND ((((40-9)%0402h)/4+1)>256)
 106  0015              ;# 106 "C:\Users\mediv\Nhap\demo\HT8_I2C_Master.c" 1
 106  0015              	MOV A,(40-9)/0402h
 106  0015              ;# 106 "C:\Users\mediv\Nhap\demo\HT8_I2C_Master.c" 1
 106  0015              	MOV _builtin_holtek_delay_2,A
 106  0015              ;# 106 "C:\Users\mediv\Nhap\demo\HT8_I2C_Master.c" 1
 106  0015              	MOV A,0
 106  0015              ;# 106 "C:\Users\mediv\Nhap\demo\HT8_I2C_Master.c" 1
 106  0015              	CALL __DELAYY5 +5- (((40-9)%0402h)%6)
 106  0015              	ENDIF
 106  0015              ;# 106 "C:\Users\mediv\Nhap\demo\HT8_I2C_Master.c" 1
 106  0015              	IF (40 >= 0x40b) AND ((((40-9)%0402h)/4+1)<=256)
 106  0015              ;# 106 "C:\Users\mediv\Nhap\demo\HT8_I2C_Master.c" 1
 106  0015              	MOV A,(40-9)/0402h
 106  0015              ;# 106 "C:\Users\mediv\Nhap\demo\HT8_I2C_Master.c" 1
 106  0015              	MOV _builtin_holtek_delay_2,A
 106  0015              ;# 106 "C:\Users\mediv\Nhap\demo\HT8_I2C_Master.c" 1
 106  0015              	MOV A,((40-9)%0402h)/4+1
 106  0015              ;# 106 "C:\Users\mediv\Nhap\demo\HT8_I2C_Master.c" 1
 106  0015              	CALL __DELAYY3 +3-(((40-9)%0402h)%4)
 106  0015              	ENDIF
 107  0015              #line 107 "C:\Users\mediv\Nhap\demo\HT8_I2C_Master.c"
 107  0015  3725        	clr [37].6
 107  0016              ;# 107 "C:\Users\mediv\Nhap\demo\HT8_I2C_Master.c" 1
 107  0016              	IF 40/2>263690
 107  0016              ;# 107 "C:\Users\mediv\Nhap\demo\HT8_I2C_Master.c" 1
 107  0016              	ERRMESSAGE 'the value 40/2of the argument exceeds the maxinum 263690'
 107  0016              	ENDIF
 107  0016              ;# 107 "C:\Users\mediv\Nhap\demo\HT8_I2C_Master.c" 1
 107  0016              	IF 40/2<0
 107  0016              ;# 107 "C:\Users\mediv\Nhap\demo\HT8_I2C_Master.c" 1
 107  0016              	ERRMESSAGE 'the value 40/2 of the argument exceeds the mininum 0'
 107  0016              	ENDIF
 107  0016              ;# 107 "C:\Users\mediv\Nhap\demo\HT8_I2C_Master.c" 1
 107  0016              	IF 40/2==0
 107  0016              ;# 107 "C:\Users\mediv\Nhap\demo\HT8_I2C_Master.c" 1
 107  0016              	JMP $
 107  0016              	ENDIF
 107  0016              ;# 107 "C:\Users\mediv\Nhap\demo\HT8_I2C_Master.c" 1
 107  0016              	IF 40/2==1
 107  0016              ;# 107 "C:\Users\mediv\Nhap\demo\HT8_I2C_Master.c" 1
 107  0016              	NOP
 107  0016              	ENDIF
 107  0016              ;# 107 "C:\Users\mediv\Nhap\demo\HT8_I2C_Master.c" 1
 107  0016              	IF 40/2==2
 107  0016              ;# 107 "C:\Users\mediv\Nhap\demo\HT8_I2C_Master.c" 1
 107  0016              	NOP
 107  0016              ;# 107 "C:\Users\mediv\Nhap\demo\HT8_I2C_Master.c" 1
 107  0016              	NOP
 107  0016              	ENDIF
 107  0016              ;# 107 "C:\Users\mediv\Nhap\demo\HT8_I2C_Master.c" 1
 107  0016              	IF 40/2==3
 107  0016              ;# 107 "C:\Users\mediv\Nhap\demo\HT8_I2C_Master.c" 1
 107  0016              	NOP
 107  0016              ;# 107 "C:\Users\mediv\Nhap\demo\HT8_I2C_Master.c" 1
 107  0016              	NOP
 107  0016              ;# 107 "C:\Users\mediv\Nhap\demo\HT8_I2C_Master.c" 1
 107  0016              	NOP
 107  0016              	ENDIF
 107  0016              ;# 107 "C:\Users\mediv\Nhap\demo\HT8_I2C_Master.c" 1
"File: HT8_I2C_Master.c  Assembler  Version HGASM0202      Page 16

 107  0016              	IF (40/2<8) AND (40/2>3)
 107  0016              ;# 107 "C:\Users\mediv\Nhap\demo\HT8_I2C_Master.c" 1
 107  0016              	CALL __DELAY3 + 7 -40/2
 107  0016              	ENDIF
 107  0016              ;# 107 "C:\Users\mediv\Nhap\demo\HT8_I2C_Master.c" 1
 107  0016              	IF (40/2< 0404h) AND (40/2>7)
 107  0016              ;# 107 "C:\Users\mediv\Nhap\demo\HT8_I2C_Master.c" 1
 107  0016  0F04        	MOV A,40/2/4-1
 107  0017              ;# 107 "C:\Users\mediv\Nhap\demo\HT8_I2C_Master.c" 1
 107  0017  2000     E  	CALL __DELAYX3 + 3 -(40/2 MOD 4)
 107  0018              	ENDIF
 107  0018              ;# 107 "C:\Users\mediv\Nhap\demo\HT8_I2C_Master.c" 1
 107  0018              	IF (40/2< 0x40B) AND (40/2> 0403h)
 107  0018              ;# 107 "C:\Users\mediv\Nhap\demo\HT8_I2C_Master.c" 1
 107  0018              	MOV A,0 
 107  0018              ;# 107 "C:\Users\mediv\Nhap\demo\HT8_I2C_Master.c" 1
 107  0018              	CALL __DELAYX6 + 0x40a -40/2
 107  0018              	ENDIF
 107  0018              ;# 107 "C:\Users\mediv\Nhap\demo\HT8_I2C_Master.c" 1
 107  0018              	IF (40/2 >= 0x40b) AND ((((40/2-9)%0402h)/4+1)>256)
 107  0018              ;# 107 "C:\Users\mediv\Nhap\demo\HT8_I2C_Master.c" 1
 107  0018              	MOV A,(40/2-9)/0402h
 107  0018              ;# 107 "C:\Users\mediv\Nhap\demo\HT8_I2C_Master.c" 1
 107  0018              	MOV _builtin_holtek_delay_2,A
 107  0018              ;# 107 "C:\Users\mediv\Nhap\demo\HT8_I2C_Master.c" 1
 107  0018              	MOV A,0
 107  0018              ;# 107 "C:\Users\mediv\Nhap\demo\HT8_I2C_Master.c" 1
 107  0018              	CALL __DELAYY5 +5- (((40/2-9)%0402h)%6)
 107  0018              	ENDIF
 107  0018              ;# 107 "C:\Users\mediv\Nhap\demo\HT8_I2C_Master.c" 1
 107  0018              	IF (40/2 >= 0x40b) AND ((((40/2-9)%0402h)/4+1)<=256)
 107  0018              ;# 107 "C:\Users\mediv\Nhap\demo\HT8_I2C_Master.c" 1
 107  0018              	MOV A,(40/2-9)/0402h
 107  0018              ;# 107 "C:\Users\mediv\Nhap\demo\HT8_I2C_Master.c" 1
 107  0018              	MOV _builtin_holtek_delay_2,A
 107  0018              ;# 107 "C:\Users\mediv\Nhap\demo\HT8_I2C_Master.c" 1
 107  0018              	MOV A,((40/2-9)%0402h)/4+1
 107  0018              ;# 107 "C:\Users\mediv\Nhap\demo\HT8_I2C_Master.c" 1
 107  0018              	CALL __DELAYY3 +3-(((40/2-9)%0402h)%4)
 107  0018              	ENDIF
 108  0018              #line 108 "C:\Users\mediv\Nhap\demo\HT8_I2C_Master.c"
 108  0018  340A        	clr c
 108  0019  1B80     E  	rrc rb
 108  001A  1480     E  	inc ra
 109  001B              #line 109 "C:\Users\mediv\Nhap\demo\HT8_I2C_Master.c"
 109  001B  0700     E  	mov a,ra
 109  001C  0A08        	sub a,8
 109  001D  390A        	snz z
 109  001E  2800     R  	jmp _L8
 110  001F              #line 110 "C:\Users\mediv\Nhap\demo\HT8_I2C_Master.c"
 110  001F              ;# 110 "C:\Users\mediv\Nhap\demo\HT8_I2C_Master.c" 1
 110  001F  0000        	nop
 110  0020  0003        	ret
 110  0021              _Wr_Byte endp
 110  0021              #line 110 "C:\Users\mediv\Nhap\demo\HT8_I2C_Master.c"
 110  0021              #pragma debug scope 1 1
 110  0021              public _Rd_Byte
 110  0021              #pragma debug scope 6 1
 120  0021              #line 120 "C:\Users\mediv\Nhap\demo\HT8_I2C_Master.c"
 120  0000              _Rd_Byte .section 'code'
"File: HT8_I2C_Master.c  Assembler  Version HGASM0202      Page 17

 120  0000              _Rd_Byte proc
 122  0000              #line 122 "C:\Users\mediv\Nhap\demo\HT8_I2C_Master.c"
 122  0000  3195        	set [21].3
 122  0001  1F00     E  	clr rb
 121  0002              #line 121 "C:\Users\mediv\Nhap\demo\HT8_I2C_Master.c"
 121  0002  0F80        	mov a,128
 121  0003  0080     E  	mov rc,a
 121  0004  1F00     E  	clr ra
 121  0005              _L13:
 125  0005              #line 125 "C:\Users\mediv\Nhap\demo\HT8_I2C_Master.c"
 125  0005  3325        	set [37].6
 125  0006              ;# 125 "C:\Users\mediv\Nhap\demo\HT8_I2C_Master.c" 1
 125  0006              	IF 40>263690
 125  0006              ;# 125 "C:\Users\mediv\Nhap\demo\HT8_I2C_Master.c" 1
 125  0006              	ERRMESSAGE 'the value 40of the argument exceeds the maxinum 263690'
 125  0006              	ENDIF
 125  0006              ;# 125 "C:\Users\mediv\Nhap\demo\HT8_I2C_Master.c" 1
 125  0006              	IF 40<0
 125  0006              ;# 125 "C:\Users\mediv\Nhap\demo\HT8_I2C_Master.c" 1
 125  0006              	ERRMESSAGE 'the value 40 of the argument exceeds the mininum 0'
 125  0006              	ENDIF
 125  0006              ;# 125 "C:\Users\mediv\Nhap\demo\HT8_I2C_Master.c" 1
 125  0006              	IF 40==0
 125  0006              ;# 125 "C:\Users\mediv\Nhap\demo\HT8_I2C_Master.c" 1
 125  0006              	JMP $
 125  0006              	ENDIF
 125  0006              ;# 125 "C:\Users\mediv\Nhap\demo\HT8_I2C_Master.c" 1
 125  0006              	IF 40==1
 125  0006              ;# 125 "C:\Users\mediv\Nhap\demo\HT8_I2C_Master.c" 1
 125  0006              	NOP
 125  0006              	ENDIF
 125  0006              ;# 125 "C:\Users\mediv\Nhap\demo\HT8_I2C_Master.c" 1
 125  0006              	IF 40==2
 125  0006              ;# 125 "C:\Users\mediv\Nhap\demo\HT8_I2C_Master.c" 1
 125  0006              	NOP
 125  0006              ;# 125 "C:\Users\mediv\Nhap\demo\HT8_I2C_Master.c" 1
 125  0006              	NOP
 125  0006              	ENDIF
 125  0006              ;# 125 "C:\Users\mediv\Nhap\demo\HT8_I2C_Master.c" 1
 125  0006              	IF 40==3
 125  0006              ;# 125 "C:\Users\mediv\Nhap\demo\HT8_I2C_Master.c" 1
 125  0006              	NOP
 125  0006              ;# 125 "C:\Users\mediv\Nhap\demo\HT8_I2C_Master.c" 1
 125  0006              	NOP
 125  0006              ;# 125 "C:\Users\mediv\Nhap\demo\HT8_I2C_Master.c" 1
 125  0006              	NOP
 125  0006              	ENDIF
 125  0006              ;# 125 "C:\Users\mediv\Nhap\demo\HT8_I2C_Master.c" 1
 125  0006              	IF (40<8) AND (40>3)
 125  0006              ;# 125 "C:\Users\mediv\Nhap\demo\HT8_I2C_Master.c" 1
 125  0006              	CALL __DELAY3 + 7 -40
 125  0006              	ENDIF
 125  0006              ;# 125 "C:\Users\mediv\Nhap\demo\HT8_I2C_Master.c" 1
 125  0006              	IF (40< 0404h) AND (40>7)
 125  0006              ;# 125 "C:\Users\mediv\Nhap\demo\HT8_I2C_Master.c" 1
 125  0006  0F09        	MOV A,40/4-1
 125  0007              ;# 125 "C:\Users\mediv\Nhap\demo\HT8_I2C_Master.c" 1
 125  0007  2000     E  	CALL __DELAYX3 + 3 -(40 MOD 4)
 125  0008              	ENDIF
 125  0008              ;# 125 "C:\Users\mediv\Nhap\demo\HT8_I2C_Master.c" 1
"File: HT8_I2C_Master.c  Assembler  Version HGASM0202      Page 18

 125  0008              	IF (40< 0x40B) AND (40> 0403h)
 125  0008              ;# 125 "C:\Users\mediv\Nhap\demo\HT8_I2C_Master.c" 1
 125  0008              	MOV A,0 
 125  0008              ;# 125 "C:\Users\mediv\Nhap\demo\HT8_I2C_Master.c" 1
 125  0008              	CALL __DELAYX6 + 0x40a -40
 125  0008              	ENDIF
 125  0008              ;# 125 "C:\Users\mediv\Nhap\demo\HT8_I2C_Master.c" 1
 125  0008              	IF (40 >= 0x40b) AND ((((40-9)%0402h)/4+1)>256)
 125  0008              ;# 125 "C:\Users\mediv\Nhap\demo\HT8_I2C_Master.c" 1
 125  0008              	MOV A,(40-9)/0402h
 125  0008              ;# 125 "C:\Users\mediv\Nhap\demo\HT8_I2C_Master.c" 1
 125  0008              	MOV _builtin_holtek_delay_2,A
 125  0008              ;# 125 "C:\Users\mediv\Nhap\demo\HT8_I2C_Master.c" 1
 125  0008              	MOV A,0
 125  0008              ;# 125 "C:\Users\mediv\Nhap\demo\HT8_I2C_Master.c" 1
 125  0008              	CALL __DELAYY5 +5- (((40-9)%0402h)%6)
 125  0008              	ENDIF
 125  0008              ;# 125 "C:\Users\mediv\Nhap\demo\HT8_I2C_Master.c" 1
 125  0008              	IF (40 >= 0x40b) AND ((((40-9)%0402h)/4+1)<=256)
 125  0008              ;# 125 "C:\Users\mediv\Nhap\demo\HT8_I2C_Master.c" 1
 125  0008              	MOV A,(40-9)/0402h
 125  0008              ;# 125 "C:\Users\mediv\Nhap\demo\HT8_I2C_Master.c" 1
 125  0008              	MOV _builtin_holtek_delay_2,A
 125  0008              ;# 125 "C:\Users\mediv\Nhap\demo\HT8_I2C_Master.c" 1
 125  0008              	MOV A,((40-9)%0402h)/4+1
 125  0008              ;# 125 "C:\Users\mediv\Nhap\demo\HT8_I2C_Master.c" 1
 125  0008              	CALL __DELAYY3 +3-(((40-9)%0402h)%4)
 125  0008              	ENDIF
 126  0008              #line 126 "C:\Users\mediv\Nhap\demo\HT8_I2C_Master.c"
 126  0008  3994        	snz [20].3
 126  0009  2800     R  	jmp _L11
 127  000A              #line 127 "C:\Users\mediv\Nhap\demo\HT8_I2C_Master.c"
 127  000A  0700     E  	mov a,rc
 127  000B  0580     E  	orm a,ra
 127  000C              _L11:
 128  000C              #line 128 "C:\Users\mediv\Nhap\demo\HT8_I2C_Master.c"
 128  000C  3725        	clr [37].6
 128  000D              ;# 128 "C:\Users\mediv\Nhap\demo\HT8_I2C_Master.c" 1
 128  000D              	IF 40>263690
 128  000D              ;# 128 "C:\Users\mediv\Nhap\demo\HT8_I2C_Master.c" 1
 128  000D              	ERRMESSAGE 'the value 40of the argument exceeds the maxinum 263690'
 128  000D              	ENDIF
 128  000D              ;# 128 "C:\Users\mediv\Nhap\demo\HT8_I2C_Master.c" 1
 128  000D              	IF 40<0
 128  000D              ;# 128 "C:\Users\mediv\Nhap\demo\HT8_I2C_Master.c" 1
 128  000D              	ERRMESSAGE 'the value 40 of the argument exceeds the mininum 0'
 128  000D              	ENDIF
 128  000D              ;# 128 "C:\Users\mediv\Nhap\demo\HT8_I2C_Master.c" 1
 128  000D              	IF 40==0
 128  000D              ;# 128 "C:\Users\mediv\Nhap\demo\HT8_I2C_Master.c" 1
 128  000D              	JMP $
 128  000D              	ENDIF
 128  000D              ;# 128 "C:\Users\mediv\Nhap\demo\HT8_I2C_Master.c" 1
 128  000D              	IF 40==1
 128  000D              ;# 128 "C:\Users\mediv\Nhap\demo\HT8_I2C_Master.c" 1
 128  000D              	NOP
 128  000D              	ENDIF
 128  000D              ;# 128 "C:\Users\mediv\Nhap\demo\HT8_I2C_Master.c" 1
 128  000D              	IF 40==2
 128  000D              ;# 128 "C:\Users\mediv\Nhap\demo\HT8_I2C_Master.c" 1
"File: HT8_I2C_Master.c  Assembler  Version HGASM0202      Page 19

 128  000D              	NOP
 128  000D              ;# 128 "C:\Users\mediv\Nhap\demo\HT8_I2C_Master.c" 1
 128  000D              	NOP
 128  000D              	ENDIF
 128  000D              ;# 128 "C:\Users\mediv\Nhap\demo\HT8_I2C_Master.c" 1
 128  000D              	IF 40==3
 128  000D              ;# 128 "C:\Users\mediv\Nhap\demo\HT8_I2C_Master.c" 1
 128  000D              	NOP
 128  000D              ;# 128 "C:\Users\mediv\Nhap\demo\HT8_I2C_Master.c" 1
 128  000D              	NOP
 128  000D              ;# 128 "C:\Users\mediv\Nhap\demo\HT8_I2C_Master.c" 1
 128  000D              	NOP
 128  000D              	ENDIF
 128  000D              ;# 128 "C:\Users\mediv\Nhap\demo\HT8_I2C_Master.c" 1
 128  000D              	IF (40<8) AND (40>3)
 128  000D              ;# 128 "C:\Users\mediv\Nhap\demo\HT8_I2C_Master.c" 1
 128  000D              	CALL __DELAY3 + 7 -40
 128  000D              	ENDIF
 128  000D              ;# 128 "C:\Users\mediv\Nhap\demo\HT8_I2C_Master.c" 1
 128  000D              	IF (40< 0404h) AND (40>7)
 128  000D              ;# 128 "C:\Users\mediv\Nhap\demo\HT8_I2C_Master.c" 1
 128  000D  0F09        	MOV A,40/4-1
 128  000E              ;# 128 "C:\Users\mediv\Nhap\demo\HT8_I2C_Master.c" 1
 128  000E  2000     E  	CALL __DELAYX3 + 3 -(40 MOD 4)
 128  000F              	ENDIF
 128  000F              ;# 128 "C:\Users\mediv\Nhap\demo\HT8_I2C_Master.c" 1
 128  000F              	IF (40< 0x40B) AND (40> 0403h)
 128  000F              ;# 128 "C:\Users\mediv\Nhap\demo\HT8_I2C_Master.c" 1
 128  000F              	MOV A,0 
 128  000F              ;# 128 "C:\Users\mediv\Nhap\demo\HT8_I2C_Master.c" 1
 128  000F              	CALL __DELAYX6 + 0x40a -40
 128  000F              	ENDIF
 128  000F              ;# 128 "C:\Users\mediv\Nhap\demo\HT8_I2C_Master.c" 1
 128  000F              	IF (40 >= 0x40b) AND ((((40-9)%0402h)/4+1)>256)
 128  000F              ;# 128 "C:\Users\mediv\Nhap\demo\HT8_I2C_Master.c" 1
 128  000F              	MOV A,(40-9)/0402h
 128  000F              ;# 128 "C:\Users\mediv\Nhap\demo\HT8_I2C_Master.c" 1
 128  000F              	MOV _builtin_holtek_delay_2,A
 128  000F              ;# 128 "C:\Users\mediv\Nhap\demo\HT8_I2C_Master.c" 1
 128  000F              	MOV A,0
 128  000F              ;# 128 "C:\Users\mediv\Nhap\demo\HT8_I2C_Master.c" 1
 128  000F              	CALL __DELAYY5 +5- (((40-9)%0402h)%6)
 128  000F              	ENDIF
 128  000F              ;# 128 "C:\Users\mediv\Nhap\demo\HT8_I2C_Master.c" 1
 128  000F              	IF (40 >= 0x40b) AND ((((40-9)%0402h)/4+1)<=256)
 128  000F              ;# 128 "C:\Users\mediv\Nhap\demo\HT8_I2C_Master.c" 1
 128  000F              	MOV A,(40-9)/0402h
 128  000F              ;# 128 "C:\Users\mediv\Nhap\demo\HT8_I2C_Master.c" 1
 128  000F              	MOV _builtin_holtek_delay_2,A
 128  000F              ;# 128 "C:\Users\mediv\Nhap\demo\HT8_I2C_Master.c" 1
 128  000F              	MOV A,((40-9)%0402h)/4+1
 128  000F              ;# 128 "C:\Users\mediv\Nhap\demo\HT8_I2C_Master.c" 1
 128  000F              	CALL __DELAYY3 +3-(((40-9)%0402h)%4)
 128  000F              	ENDIF
 129  000F              #line 129 "C:\Users\mediv\Nhap\demo\HT8_I2C_Master.c"
 129  000F  340A        	clr c
 129  0010  1B80     E  	rrc rc
 129  0011  1480     E  	inc rb
 130  0012              #line 130 "C:\Users\mediv\Nhap\demo\HT8_I2C_Master.c"
 130  0012  0700     E  	mov a,rb
"File: HT8_I2C_Master.c  Assembler  Version HGASM0202      Page 20

 130  0013  0A08        	sub a,8
 130  0014  390A        	snz z
 130  0015  2800     R  	jmp _L13
 132  0016              #line 132 "C:\Users\mediv\Nhap\demo\HT8_I2C_Master.c"
 132  0016  0700     E  	mov a,ra
 132  0017  0003        	ret
 132  0018              _Rd_Byte endp
 132  0018              #line 132 "C:\Users\mediv\Nhap\demo\HT8_I2C_Master.c"
 132  0018              #pragma debug scope 1 1
 132  0018              public _CheckACK
 132  0018              #pragma debug scope 7 1
 142  0018              #line 142 "C:\Users\mediv\Nhap\demo\HT8_I2C_Master.c"
 142  0000              _CheckACK .section 'code'
 142  0000              _CheckACK proc
 145  0000              #line 145 "C:\Users\mediv\Nhap\demo\HT8_I2C_Master.c"
 145  0000  0F15        	mov a,21
 145  0001  0080     E  	mov rb,a
 144  0002              #line 144 "C:\Users\mediv\Nhap\demo\HT8_I2C_Master.c"
 144  0002  1F00     E  	clr ra
 144  0003              _L18:
 144  0003  1780     E  	sdz rb
 144  0004  2800     R  	jmp _LI2
 144  0005  2800     R  	jmp _L19
 144  0006              _LI2:
 147  0006              #line 147 "C:\Users\mediv\Nhap\demo\HT8_I2C_Master.c"
 147  0006  3195        	set [21].3
 147  0007              ;# 147 "C:\Users\mediv\Nhap\demo\HT8_I2C_Master.c" 1
 147  0007              	IF 40>263690
 147  0007              ;# 147 "C:\Users\mediv\Nhap\demo\HT8_I2C_Master.c" 1
 147  0007              	ERRMESSAGE 'the value 40of the argument exceeds the maxinum 263690'
 147  0007              	ENDIF
 147  0007              ;# 147 "C:\Users\mediv\Nhap\demo\HT8_I2C_Master.c" 1
 147  0007              	IF 40<0
 147  0007              ;# 147 "C:\Users\mediv\Nhap\demo\HT8_I2C_Master.c" 1
 147  0007              	ERRMESSAGE 'the value 40 of the argument exceeds the mininum 0'
 147  0007              	ENDIF
 147  0007              ;# 147 "C:\Users\mediv\Nhap\demo\HT8_I2C_Master.c" 1
 147  0007              	IF 40==0
 147  0007              ;# 147 "C:\Users\mediv\Nhap\demo\HT8_I2C_Master.c" 1
 147  0007              	JMP $
 147  0007              	ENDIF
 147  0007              ;# 147 "C:\Users\mediv\Nhap\demo\HT8_I2C_Master.c" 1
 147  0007              	IF 40==1
 147  0007              ;# 147 "C:\Users\mediv\Nhap\demo\HT8_I2C_Master.c" 1
 147  0007              	NOP
 147  0007              	ENDIF
 147  0007              ;# 147 "C:\Users\mediv\Nhap\demo\HT8_I2C_Master.c" 1
 147  0007              	IF 40==2
 147  0007              ;# 147 "C:\Users\mediv\Nhap\demo\HT8_I2C_Master.c" 1
 147  0007              	NOP
 147  0007              ;# 147 "C:\Users\mediv\Nhap\demo\HT8_I2C_Master.c" 1
 147  0007              	NOP
 147  0007              	ENDIF
 147  0007              ;# 147 "C:\Users\mediv\Nhap\demo\HT8_I2C_Master.c" 1
 147  0007              	IF 40==3
 147  0007              ;# 147 "C:\Users\mediv\Nhap\demo\HT8_I2C_Master.c" 1
 147  0007              	NOP
 147  0007              ;# 147 "C:\Users\mediv\Nhap\demo\HT8_I2C_Master.c" 1
 147  0007              	NOP
 147  0007              ;# 147 "C:\Users\mediv\Nhap\demo\HT8_I2C_Master.c" 1
"File: HT8_I2C_Master.c  Assembler  Version HGASM0202      Page 21

 147  0007              	NOP
 147  0007              	ENDIF
 147  0007              ;# 147 "C:\Users\mediv\Nhap\demo\HT8_I2C_Master.c" 1
 147  0007              	IF (40<8) AND (40>3)
 147  0007              ;# 147 "C:\Users\mediv\Nhap\demo\HT8_I2C_Master.c" 1
 147  0007              	CALL __DELAY3 + 7 -40
 147  0007              	ENDIF
 147  0007              ;# 147 "C:\Users\mediv\Nhap\demo\HT8_I2C_Master.c" 1
 147  0007              	IF (40< 0404h) AND (40>7)
 147  0007              ;# 147 "C:\Users\mediv\Nhap\demo\HT8_I2C_Master.c" 1
 147  0007  0F09        	MOV A,40/4-1
 147  0008              ;# 147 "C:\Users\mediv\Nhap\demo\HT8_I2C_Master.c" 1
 147  0008  2000     E  	CALL __DELAYX3 + 3 -(40 MOD 4)
 147  0009              	ENDIF
 147  0009              ;# 147 "C:\Users\mediv\Nhap\demo\HT8_I2C_Master.c" 1
 147  0009              	IF (40< 0x40B) AND (40> 0403h)
 147  0009              ;# 147 "C:\Users\mediv\Nhap\demo\HT8_I2C_Master.c" 1
 147  0009              	MOV A,0 
 147  0009              ;# 147 "C:\Users\mediv\Nhap\demo\HT8_I2C_Master.c" 1
 147  0009              	CALL __DELAYX6 + 0x40a -40
 147  0009              	ENDIF
 147  0009              ;# 147 "C:\Users\mediv\Nhap\demo\HT8_I2C_Master.c" 1
 147  0009              	IF (40 >= 0x40b) AND ((((40-9)%0402h)/4+1)>256)
 147  0009              ;# 147 "C:\Users\mediv\Nhap\demo\HT8_I2C_Master.c" 1
 147  0009              	MOV A,(40-9)/0402h
 147  0009              ;# 147 "C:\Users\mediv\Nhap\demo\HT8_I2C_Master.c" 1
 147  0009              	MOV _builtin_holtek_delay_2,A
 147  0009              ;# 147 "C:\Users\mediv\Nhap\demo\HT8_I2C_Master.c" 1
 147  0009              	MOV A,0
 147  0009              ;# 147 "C:\Users\mediv\Nhap\demo\HT8_I2C_Master.c" 1
 147  0009              	CALL __DELAYY5 +5- (((40-9)%0402h)%6)
 147  0009              	ENDIF
 147  0009              ;# 147 "C:\Users\mediv\Nhap\demo\HT8_I2C_Master.c" 1
 147  0009              	IF (40 >= 0x40b) AND ((((40-9)%0402h)/4+1)<=256)
 147  0009              ;# 147 "C:\Users\mediv\Nhap\demo\HT8_I2C_Master.c" 1
 147  0009              	MOV A,(40-9)/0402h
 147  0009              ;# 147 "C:\Users\mediv\Nhap\demo\HT8_I2C_Master.c" 1
 147  0009              	MOV _builtin_holtek_delay_2,A
 147  0009              ;# 147 "C:\Users\mediv\Nhap\demo\HT8_I2C_Master.c" 1
 147  0009              	MOV A,((40-9)%0402h)/4+1
 147  0009              ;# 147 "C:\Users\mediv\Nhap\demo\HT8_I2C_Master.c" 1
 147  0009              	CALL __DELAYY3 +3-(((40-9)%0402h)%4)
 147  0009              	ENDIF
 148  0009              #line 148 "C:\Users\mediv\Nhap\demo\HT8_I2C_Master.c"
 148  0009  3325        	set [37].6
 148  000A              ;# 148 "C:\Users\mediv\Nhap\demo\HT8_I2C_Master.c" 1
 148  000A              	IF 40>263690
 148  000A              ;# 148 "C:\Users\mediv\Nhap\demo\HT8_I2C_Master.c" 1
 148  000A              	ERRMESSAGE 'the value 40of the argument exceeds the maxinum 263690'
 148  000A              	ENDIF
 148  000A              ;# 148 "C:\Users\mediv\Nhap\demo\HT8_I2C_Master.c" 1
 148  000A              	IF 40<0
 148  000A              ;# 148 "C:\Users\mediv\Nhap\demo\HT8_I2C_Master.c" 1
 148  000A              	ERRMESSAGE 'the value 40 of the argument exceeds the mininum 0'
 148  000A              	ENDIF
 148  000A              ;# 148 "C:\Users\mediv\Nhap\demo\HT8_I2C_Master.c" 1
 148  000A              	IF 40==0
 148  000A              ;# 148 "C:\Users\mediv\Nhap\demo\HT8_I2C_Master.c" 1
 148  000A              	JMP $
 148  000A              	ENDIF
"File: HT8_I2C_Master.c  Assembler  Version HGASM0202      Page 22

 148  000A              ;# 148 "C:\Users\mediv\Nhap\demo\HT8_I2C_Master.c" 1
 148  000A              	IF 40==1
 148  000A              ;# 148 "C:\Users\mediv\Nhap\demo\HT8_I2C_Master.c" 1
 148  000A              	NOP
 148  000A              	ENDIF
 148  000A              ;# 148 "C:\Users\mediv\Nhap\demo\HT8_I2C_Master.c" 1
 148  000A              	IF 40==2
 148  000A              ;# 148 "C:\Users\mediv\Nhap\demo\HT8_I2C_Master.c" 1
 148  000A              	NOP
 148  000A              ;# 148 "C:\Users\mediv\Nhap\demo\HT8_I2C_Master.c" 1
 148  000A              	NOP
 148  000A              	ENDIF
 148  000A              ;# 148 "C:\Users\mediv\Nhap\demo\HT8_I2C_Master.c" 1
 148  000A              	IF 40==3
 148  000A              ;# 148 "C:\Users\mediv\Nhap\demo\HT8_I2C_Master.c" 1
 148  000A              	NOP
 148  000A              ;# 148 "C:\Users\mediv\Nhap\demo\HT8_I2C_Master.c" 1
 148  000A              	NOP
 148  000A              ;# 148 "C:\Users\mediv\Nhap\demo\HT8_I2C_Master.c" 1
 148  000A              	NOP
 148  000A              	ENDIF
 148  000A              ;# 148 "C:\Users\mediv\Nhap\demo\HT8_I2C_Master.c" 1
 148  000A              	IF (40<8) AND (40>3)
 148  000A              ;# 148 "C:\Users\mediv\Nhap\demo\HT8_I2C_Master.c" 1
 148  000A              	CALL __DELAY3 + 7 -40
 148  000A              	ENDIF
 148  000A              ;# 148 "C:\Users\mediv\Nhap\demo\HT8_I2C_Master.c" 1
 148  000A              	IF (40< 0404h) AND (40>7)
 148  000A              ;# 148 "C:\Users\mediv\Nhap\demo\HT8_I2C_Master.c" 1
 148  000A  0F09        	MOV A,40/4-1
 148  000B              ;# 148 "C:\Users\mediv\Nhap\demo\HT8_I2C_Master.c" 1
 148  000B  2000     E  	CALL __DELAYX3 + 3 -(40 MOD 4)
 148  000C              	ENDIF
 148  000C              ;# 148 "C:\Users\mediv\Nhap\demo\HT8_I2C_Master.c" 1
 148  000C              	IF (40< 0x40B) AND (40> 0403h)
 148  000C              ;# 148 "C:\Users\mediv\Nhap\demo\HT8_I2C_Master.c" 1
 148  000C              	MOV A,0 
 148  000C              ;# 148 "C:\Users\mediv\Nhap\demo\HT8_I2C_Master.c" 1
 148  000C              	CALL __DELAYX6 + 0x40a -40
 148  000C              	ENDIF
 148  000C              ;# 148 "C:\Users\mediv\Nhap\demo\HT8_I2C_Master.c" 1
 148  000C              	IF (40 >= 0x40b) AND ((((40-9)%0402h)/4+1)>256)
 148  000C              ;# 148 "C:\Users\mediv\Nhap\demo\HT8_I2C_Master.c" 1
 148  000C              	MOV A,(40-9)/0402h
 148  000C              ;# 148 "C:\Users\mediv\Nhap\demo\HT8_I2C_Master.c" 1
 148  000C              	MOV _builtin_holtek_delay_2,A
 148  000C              ;# 148 "C:\Users\mediv\Nhap\demo\HT8_I2C_Master.c" 1
 148  000C              	MOV A,0
 148  000C              ;# 148 "C:\Users\mediv\Nhap\demo\HT8_I2C_Master.c" 1
 148  000C              	CALL __DELAYY5 +5- (((40-9)%0402h)%6)
 148  000C              	ENDIF
 148  000C              ;# 148 "C:\Users\mediv\Nhap\demo\HT8_I2C_Master.c" 1
 148  000C              	IF (40 >= 0x40b) AND ((((40-9)%0402h)/4+1)<=256)
 148  000C              ;# 148 "C:\Users\mediv\Nhap\demo\HT8_I2C_Master.c" 1
 148  000C              	MOV A,(40-9)/0402h
 148  000C              ;# 148 "C:\Users\mediv\Nhap\demo\HT8_I2C_Master.c" 1
 148  000C              	MOV _builtin_holtek_delay_2,A
 148  000C              ;# 148 "C:\Users\mediv\Nhap\demo\HT8_I2C_Master.c" 1
 148  000C              	MOV A,((40-9)%0402h)/4+1
 148  000C              ;# 148 "C:\Users\mediv\Nhap\demo\HT8_I2C_Master.c" 1
"File: HT8_I2C_Master.c  Assembler  Version HGASM0202      Page 23

 148  000C              	CALL __DELAYY3 +3-(((40-9)%0402h)%4)
 148  000C              	ENDIF
 149  000C              #line 149 "C:\Users\mediv\Nhap\demo\HT8_I2C_Master.c"
 149  000C  3994        	snz [20].3
 149  000D  2800     R  	jmp _L21
 155  000E              #line 155 "C:\Users\mediv\Nhap\demo\HT8_I2C_Master.c"
 155  000E              ;# 155 "C:\Users\mediv\Nhap\demo\HT8_I2C_Master.c" 1
 155  000E              	IF 40>263690
 155  000E              ;# 155 "C:\Users\mediv\Nhap\demo\HT8_I2C_Master.c" 1
 155  000E              	ERRMESSAGE 'the value 40of the argument exceeds the maxinum 263690'
 155  000E              	ENDIF
 155  000E              ;# 155 "C:\Users\mediv\Nhap\demo\HT8_I2C_Master.c" 1
 155  000E              	IF 40<0
 155  000E              ;# 155 "C:\Users\mediv\Nhap\demo\HT8_I2C_Master.c" 1
 155  000E              	ERRMESSAGE 'the value 40 of the argument exceeds the mininum 0'
 155  000E              	ENDIF
 155  000E              ;# 155 "C:\Users\mediv\Nhap\demo\HT8_I2C_Master.c" 1
 155  000E              	IF 40==0
 155  000E              ;# 155 "C:\Users\mediv\Nhap\demo\HT8_I2C_Master.c" 1
 155  000E              	JMP $
 155  000E              	ENDIF
 155  000E              ;# 155 "C:\Users\mediv\Nhap\demo\HT8_I2C_Master.c" 1
 155  000E              	IF 40==1
 155  000E              ;# 155 "C:\Users\mediv\Nhap\demo\HT8_I2C_Master.c" 1
 155  000E              	NOP
 155  000E              	ENDIF
 155  000E              ;# 155 "C:\Users\mediv\Nhap\demo\HT8_I2C_Master.c" 1
 155  000E              	IF 40==2
 155  000E              ;# 155 "C:\Users\mediv\Nhap\demo\HT8_I2C_Master.c" 1
 155  000E              	NOP
 155  000E              ;# 155 "C:\Users\mediv\Nhap\demo\HT8_I2C_Master.c" 1
 155  000E              	NOP
 155  000E              	ENDIF
 155  000E              ;# 155 "C:\Users\mediv\Nhap\demo\HT8_I2C_Master.c" 1
 155  000E              	IF 40==3
 155  000E              ;# 155 "C:\Users\mediv\Nhap\demo\HT8_I2C_Master.c" 1
 155  000E              	NOP
 155  000E              ;# 155 "C:\Users\mediv\Nhap\demo\HT8_I2C_Master.c" 1
 155  000E              	NOP
 155  000E              ;# 155 "C:\Users\mediv\Nhap\demo\HT8_I2C_Master.c" 1
 155  000E              	NOP
 155  000E              	ENDIF
 155  000E              ;# 155 "C:\Users\mediv\Nhap\demo\HT8_I2C_Master.c" 1
 155  000E              	IF (40<8) AND (40>3)
 155  000E              ;# 155 "C:\Users\mediv\Nhap\demo\HT8_I2C_Master.c" 1
 155  000E              	CALL __DELAY3 + 7 -40
 155  000E              	ENDIF
 155  000E              ;# 155 "C:\Users\mediv\Nhap\demo\HT8_I2C_Master.c" 1
 155  000E              	IF (40< 0404h) AND (40>7)
 155  000E              ;# 155 "C:\Users\mediv\Nhap\demo\HT8_I2C_Master.c" 1
 155  000E  0F09        	MOV A,40/4-1
 155  000F              ;# 155 "C:\Users\mediv\Nhap\demo\HT8_I2C_Master.c" 1
 155  000F  2000     E  	CALL __DELAYX3 + 3 -(40 MOD 4)
 155  0010              	ENDIF
 155  0010              ;# 155 "C:\Users\mediv\Nhap\demo\HT8_I2C_Master.c" 1
 155  0010              	IF (40< 0x40B) AND (40> 0403h)
 155  0010              ;# 155 "C:\Users\mediv\Nhap\demo\HT8_I2C_Master.c" 1
 155  0010              	MOV A,0 
 155  0010              ;# 155 "C:\Users\mediv\Nhap\demo\HT8_I2C_Master.c" 1
 155  0010              	CALL __DELAYX6 + 0x40a -40
"File: HT8_I2C_Master.c  Assembler  Version HGASM0202      Page 24

 155  0010              	ENDIF
 155  0010              ;# 155 "C:\Users\mediv\Nhap\demo\HT8_I2C_Master.c" 1
 155  0010              	IF (40 >= 0x40b) AND ((((40-9)%0402h)/4+1)>256)
 155  0010              ;# 155 "C:\Users\mediv\Nhap\demo\HT8_I2C_Master.c" 1
 155  0010              	MOV A,(40-9)/0402h
 155  0010              ;# 155 "C:\Users\mediv\Nhap\demo\HT8_I2C_Master.c" 1
 155  0010              	MOV _builtin_holtek_delay_2,A
 155  0010              ;# 155 "C:\Users\mediv\Nhap\demo\HT8_I2C_Master.c" 1
 155  0010              	MOV A,0
 155  0010              ;# 155 "C:\Users\mediv\Nhap\demo\HT8_I2C_Master.c" 1
 155  0010              	CALL __DELAYY5 +5- (((40-9)%0402h)%6)
 155  0010              	ENDIF
 155  0010              ;# 155 "C:\Users\mediv\Nhap\demo\HT8_I2C_Master.c" 1
 155  0010              	IF (40 >= 0x40b) AND ((((40-9)%0402h)/4+1)<=256)
 155  0010              ;# 155 "C:\Users\mediv\Nhap\demo\HT8_I2C_Master.c" 1
 155  0010              	MOV A,(40-9)/0402h
 155  0010              ;# 155 "C:\Users\mediv\Nhap\demo\HT8_I2C_Master.c" 1
 155  0010              	MOV _builtin_holtek_delay_2,A
 155  0010              ;# 155 "C:\Users\mediv\Nhap\demo\HT8_I2C_Master.c" 1
 155  0010              	MOV A,((40-9)%0402h)/4+1
 155  0010              ;# 155 "C:\Users\mediv\Nhap\demo\HT8_I2C_Master.c" 1
 155  0010              	CALL __DELAYY3 +3-(((40-9)%0402h)%4)
 155  0010              	ENDIF
 154  0010              #line 154 "C:\Users\mediv\Nhap\demo\HT8_I2C_Master.c"
 154  0010  0F01        	mov a,1
 154  0011  0080     E  	mov ra,a
 154  0012  2800     R  	jmp _L18
 154  0013              _L21:
 151  0013              #line 151 "C:\Users\mediv\Nhap\demo\HT8_I2C_Master.c"
 151  0013  1F00     E  	clr ra
 151  0014              _L19:
 157  0014              #line 157 "C:\Users\mediv\Nhap\demo\HT8_I2C_Master.c"
 157  0014  3725        	clr [37].6
 158  0015              #line 158 "C:\Users\mediv\Nhap\demo\HT8_I2C_Master.c"
 158  0015              ;# 158 "C:\Users\mediv\Nhap\demo\HT8_I2C_Master.c" 1
 158  0015              	IF 40>263690
 158  0015              ;# 158 "C:\Users\mediv\Nhap\demo\HT8_I2C_Master.c" 1
 158  0015              	ERRMESSAGE 'the value 40of the argument exceeds the maxinum 263690'
 158  0015              	ENDIF
 158  0015              ;# 158 "C:\Users\mediv\Nhap\demo\HT8_I2C_Master.c" 1
 158  0015              	IF 40<0
 158  0015              ;# 158 "C:\Users\mediv\Nhap\demo\HT8_I2C_Master.c" 1
 158  0015              	ERRMESSAGE 'the value 40 of the argument exceeds the mininum 0'
 158  0015              	ENDIF
 158  0015              ;# 158 "C:\Users\mediv\Nhap\demo\HT8_I2C_Master.c" 1
 158  0015              	IF 40==0
 158  0015              ;# 158 "C:\Users\mediv\Nhap\demo\HT8_I2C_Master.c" 1
 158  0015              	JMP $
 158  0015              	ENDIF
 158  0015              ;# 158 "C:\Users\mediv\Nhap\demo\HT8_I2C_Master.c" 1
 158  0015              	IF 40==1
 158  0015              ;# 158 "C:\Users\mediv\Nhap\demo\HT8_I2C_Master.c" 1
 158  0015              	NOP
 158  0015              	ENDIF
 158  0015              ;# 158 "C:\Users\mediv\Nhap\demo\HT8_I2C_Master.c" 1
 158  0015              	IF 40==2
 158  0015              ;# 158 "C:\Users\mediv\Nhap\demo\HT8_I2C_Master.c" 1
 158  0015              	NOP
 158  0015              ;# 158 "C:\Users\mediv\Nhap\demo\HT8_I2C_Master.c" 1
 158  0015              	NOP
"File: HT8_I2C_Master.c  Assembler  Version HGASM0202      Page 25

 158  0015              	ENDIF
 158  0015              ;# 158 "C:\Users\mediv\Nhap\demo\HT8_I2C_Master.c" 1
 158  0015              	IF 40==3
 158  0015              ;# 158 "C:\Users\mediv\Nhap\demo\HT8_I2C_Master.c" 1
 158  0015              	NOP
 158  0015              ;# 158 "C:\Users\mediv\Nhap\demo\HT8_I2C_Master.c" 1
 158  0015              	NOP
 158  0015              ;# 158 "C:\Users\mediv\Nhap\demo\HT8_I2C_Master.c" 1
 158  0015              	NOP
 158  0015              	ENDIF
 158  0015              ;# 158 "C:\Users\mediv\Nhap\demo\HT8_I2C_Master.c" 1
 158  0015              	IF (40<8) AND (40>3)
 158  0015              ;# 158 "C:\Users\mediv\Nhap\demo\HT8_I2C_Master.c" 1
 158  0015              	CALL __DELAY3 + 7 -40
 158  0015              	ENDIF
 158  0015              ;# 158 "C:\Users\mediv\Nhap\demo\HT8_I2C_Master.c" 1
 158  0015              	IF (40< 0404h) AND (40>7)
 158  0015              ;# 158 "C:\Users\mediv\Nhap\demo\HT8_I2C_Master.c" 1
 158  0015  0F09        	MOV A,40/4-1
 158  0016              ;# 158 "C:\Users\mediv\Nhap\demo\HT8_I2C_Master.c" 1
 158  0016  2000     E  	CALL __DELAYX3 + 3 -(40 MOD 4)
 158  0017              	ENDIF
 158  0017              ;# 158 "C:\Users\mediv\Nhap\demo\HT8_I2C_Master.c" 1
 158  0017              	IF (40< 0x40B) AND (40> 0403h)
 158  0017              ;# 158 "C:\Users\mediv\Nhap\demo\HT8_I2C_Master.c" 1
 158  0017              	MOV A,0 
 158  0017              ;# 158 "C:\Users\mediv\Nhap\demo\HT8_I2C_Master.c" 1
 158  0017              	CALL __DELAYX6 + 0x40a -40
 158  0017              	ENDIF
 158  0017              ;# 158 "C:\Users\mediv\Nhap\demo\HT8_I2C_Master.c" 1
 158  0017              	IF (40 >= 0x40b) AND ((((40-9)%0402h)/4+1)>256)
 158  0017              ;# 158 "C:\Users\mediv\Nhap\demo\HT8_I2C_Master.c" 1
 158  0017              	MOV A,(40-9)/0402h
 158  0017              ;# 158 "C:\Users\mediv\Nhap\demo\HT8_I2C_Master.c" 1
 158  0017              	MOV _builtin_holtek_delay_2,A
 158  0017              ;# 158 "C:\Users\mediv\Nhap\demo\HT8_I2C_Master.c" 1
 158  0017              	MOV A,0
 158  0017              ;# 158 "C:\Users\mediv\Nhap\demo\HT8_I2C_Master.c" 1
 158  0017              	CALL __DELAYY5 +5- (((40-9)%0402h)%6)
 158  0017              	ENDIF
 158  0017              ;# 158 "C:\Users\mediv\Nhap\demo\HT8_I2C_Master.c" 1
 158  0017              	IF (40 >= 0x40b) AND ((((40-9)%0402h)/4+1)<=256)
 158  0017              ;# 158 "C:\Users\mediv\Nhap\demo\HT8_I2C_Master.c" 1
 158  0017              	MOV A,(40-9)/0402h
 158  0017              ;# 158 "C:\Users\mediv\Nhap\demo\HT8_I2C_Master.c" 1
 158  0017              	MOV _builtin_holtek_delay_2,A
 158  0017              ;# 158 "C:\Users\mediv\Nhap\demo\HT8_I2C_Master.c" 1
 158  0017              	MOV A,((40-9)%0402h)/4+1
 158  0017              ;# 158 "C:\Users\mediv\Nhap\demo\HT8_I2C_Master.c" 1
 158  0017              	CALL __DELAYY3 +3-(((40-9)%0402h)%4)
 158  0017              	ENDIF
 160  0017              #line 160 "C:\Users\mediv\Nhap\demo\HT8_I2C_Master.c"
 160  0017  0700     E  	mov a,ra
 160  0018  0003        	ret
 160  0019              _CheckACK endp
 160  0019              #line 160 "C:\Users\mediv\Nhap\demo\HT8_I2C_Master.c"
 160  0019              #pragma debug scope 1 1
 160  0019              public _I2C_Write
 160  0019              #pragma debug scope 8 1
 169  0019              #line 169 "C:\Users\mediv\Nhap\demo\HT8_I2C_Master.c"
"File: HT8_I2C_Master.c  Assembler  Version HGASM0202      Page 26

 169  0000              _I2C_Write .section 'code'
 169  0000              _I2C_Write proc
 169  0000  00              local _I2C_Write_2 db 1 dup(?)	; 0,1
 171  0001              #line 171 "C:\Users\mediv\Nhap\demo\HT8_I2C_Master.c"
 171  0000  3400     R  	clr _I2C_Flag[0].0
 171  0001  0F05        	mov a,5
 171  0002  0080     R  	mov _I2C_Write_2[0],a
 171  0003              _L30:
 176  0003              #line 176 "C:\Users\mediv\Nhap\demo\HT8_I2C_Master.c"
 176  0003  2000     R  	call _I2C_Start
 177  0004              #line 177 "C:\Users\mediv\Nhap\demo\HT8_I2C_Master.c"
 177  0004  0FD0        	mov a,208
 177  0005  2000     R  	call _Wr_Byte
 178  0006              #line 178 "C:\Users\mediv\Nhap\demo\HT8_I2C_Master.c"
 178  0006  2000     R  	call _CheckACK
 178  0007  0080     E  	mov ra,a
 178  0008  1080     E  	sz ra
 178  0009  2800     R  	jmp _L23
 180  000A              #line 180 "C:\Users\mediv\Nhap\demo\HT8_I2C_Master.c"
 180  000A              ;# 180 "C:\Users\mediv\Nhap\demo\HT8_I2C_Master.c" 1
 180  000A              	IF 200>263690
 180  000A              ;# 180 "C:\Users\mediv\Nhap\demo\HT8_I2C_Master.c" 1
 180  000A              	ERRMESSAGE 'the value 200of the argument exceeds the maxinum 263690'
 180  000A              	ENDIF
 180  000A              ;# 180 "C:\Users\mediv\Nhap\demo\HT8_I2C_Master.c" 1
 180  000A              	IF 200<0
 180  000A              ;# 180 "C:\Users\mediv\Nhap\demo\HT8_I2C_Master.c" 1
 180  000A              	ERRMESSAGE 'the value 200 of the argument exceeds the mininum 0'
 180  000A              	ENDIF
 180  000A              ;# 180 "C:\Users\mediv\Nhap\demo\HT8_I2C_Master.c" 1
 180  000A              	IF 200==0
 180  000A              ;# 180 "C:\Users\mediv\Nhap\demo\HT8_I2C_Master.c" 1
 180  000A              	JMP $
 180  000A              	ENDIF
 180  000A              ;# 180 "C:\Users\mediv\Nhap\demo\HT8_I2C_Master.c" 1
 180  000A              	IF 200==1
 180  000A              ;# 180 "C:\Users\mediv\Nhap\demo\HT8_I2C_Master.c" 1
 180  000A              	NOP
 180  000A              	ENDIF
 180  000A              ;# 180 "C:\Users\mediv\Nhap\demo\HT8_I2C_Master.c" 1
 180  000A              	IF 200==2
 180  000A              ;# 180 "C:\Users\mediv\Nhap\demo\HT8_I2C_Master.c" 1
 180  000A              	NOP
 180  000A              ;# 180 "C:\Users\mediv\Nhap\demo\HT8_I2C_Master.c" 1
 180  000A              	NOP
 180  000A              	ENDIF
 180  000A              ;# 180 "C:\Users\mediv\Nhap\demo\HT8_I2C_Master.c" 1
 180  000A              	IF 200==3
 180  000A              ;# 180 "C:\Users\mediv\Nhap\demo\HT8_I2C_Master.c" 1
 180  000A              	NOP
 180  000A              ;# 180 "C:\Users\mediv\Nhap\demo\HT8_I2C_Master.c" 1
 180  000A              	NOP
 180  000A              ;# 180 "C:\Users\mediv\Nhap\demo\HT8_I2C_Master.c" 1
 180  000A              	NOP
 180  000A              	ENDIF
 180  000A              ;# 180 "C:\Users\mediv\Nhap\demo\HT8_I2C_Master.c" 1
 180  000A              	IF (200<8) AND (200>3)
 180  000A              ;# 180 "C:\Users\mediv\Nhap\demo\HT8_I2C_Master.c" 1
 180  000A              	CALL __DELAY3 + 7 -200
 180  000A              	ENDIF
"File: HT8_I2C_Master.c  Assembler  Version HGASM0202      Page 27

 180  000A              ;# 180 "C:\Users\mediv\Nhap\demo\HT8_I2C_Master.c" 1
 180  000A              	IF (200< 0404h) AND (200>7)
 180  000A              ;# 180 "C:\Users\mediv\Nhap\demo\HT8_I2C_Master.c" 1
 180  000A  0F31        	MOV A,200/4-1
 180  000B              ;# 180 "C:\Users\mediv\Nhap\demo\HT8_I2C_Master.c" 1
 180  000B  2000     E  	CALL __DELAYX3 + 3 -(200 MOD 4)
 180  000C              	ENDIF
 180  000C              ;# 180 "C:\Users\mediv\Nhap\demo\HT8_I2C_Master.c" 1
 180  000C              	IF (200< 0x40B) AND (200> 0403h)
 180  000C              ;# 180 "C:\Users\mediv\Nhap\demo\HT8_I2C_Master.c" 1
 180  000C              	MOV A,0 
 180  000C              ;# 180 "C:\Users\mediv\Nhap\demo\HT8_I2C_Master.c" 1
 180  000C              	CALL __DELAYX6 + 0x40a -200
 180  000C              	ENDIF
 180  000C              ;# 180 "C:\Users\mediv\Nhap\demo\HT8_I2C_Master.c" 1
 180  000C              	IF (200 >= 0x40b) AND ((((200-9)%0402h)/4+1)>256)
 180  000C              ;# 180 "C:\Users\mediv\Nhap\demo\HT8_I2C_Master.c" 1
 180  000C              	MOV A,(200-9)/0402h
 180  000C              ;# 180 "C:\Users\mediv\Nhap\demo\HT8_I2C_Master.c" 1
 180  000C              	MOV _builtin_holtek_delay_2,A
 180  000C              ;# 180 "C:\Users\mediv\Nhap\demo\HT8_I2C_Master.c" 1
 180  000C              	MOV A,0
 180  000C              ;# 180 "C:\Users\mediv\Nhap\demo\HT8_I2C_Master.c" 1
 180  000C              	CALL __DELAYY5 +5- (((200-9)%0402h)%6)
 180  000C              	ENDIF
 180  000C              ;# 180 "C:\Users\mediv\Nhap\demo\HT8_I2C_Master.c" 1
 180  000C              	IF (200 >= 0x40b) AND ((((200-9)%0402h)/4+1)<=256)
 180  000C              ;# 180 "C:\Users\mediv\Nhap\demo\HT8_I2C_Master.c" 1
 180  000C              	MOV A,(200-9)/0402h
 180  000C              ;# 180 "C:\Users\mediv\Nhap\demo\HT8_I2C_Master.c" 1
 180  000C              	MOV _builtin_holtek_delay_2,A
 180  000C              ;# 180 "C:\Users\mediv\Nhap\demo\HT8_I2C_Master.c" 1
 180  000C              	MOV A,((200-9)%0402h)/4+1
 180  000C              ;# 180 "C:\Users\mediv\Nhap\demo\HT8_I2C_Master.c" 1
 180  000C              	CALL __DELAYY3 +3-(((200-9)%0402h)%4)
 180  000C              	ENDIF
 181  000C              #line 181 "C:\Users\mediv\Nhap\demo\HT8_I2C_Master.c"
 181  000C  3400     R  	clr _I2C_Flag[0].0
 183  000D              #line 183 "C:\Users\mediv\Nhap\demo\HT8_I2C_Master.c"
 183  000D  0F3B        	mov a,59
 183  000E  2000     R  	call _Wr_Byte
 184  000F              #line 184 "C:\Users\mediv\Nhap\demo\HT8_I2C_Master.c"
 184  000F  2000     R  	call _CheckACK
 184  0010  0080     E  	mov ra,a
 184  0011  0F01        	mov a,1
 184  0012  0680     E  	andm a,ra
 184  0013  3400     R  	clr _I2C_Flag[0].0
 184  0014  0700     E  	mov a,ra
 184  0015  0580     R  	orm a,_I2C_Flag[0]
 185  0016              #line 185 "C:\Users\mediv\Nhap\demo\HT8_I2C_Master.c"
 185  0016              ;# 185 "C:\Users\mediv\Nhap\demo\HT8_I2C_Master.c" 1
 185  0016              	IF 200>263690
 185  0016              ;# 185 "C:\Users\mediv\Nhap\demo\HT8_I2C_Master.c" 1
 185  0016              	ERRMESSAGE 'the value 200of the argument exceeds the maxinum 263690'
 185  0016              	ENDIF
 185  0016              ;# 185 "C:\Users\mediv\Nhap\demo\HT8_I2C_Master.c" 1
 185  0016              	IF 200<0
 185  0016              ;# 185 "C:\Users\mediv\Nhap\demo\HT8_I2C_Master.c" 1
 185  0016              	ERRMESSAGE 'the value 200 of the argument exceeds the mininum 0'
 185  0016              	ENDIF
"File: HT8_I2C_Master.c  Assembler  Version HGASM0202      Page 28

 185  0016              ;# 185 "C:\Users\mediv\Nhap\demo\HT8_I2C_Master.c" 1
 185  0016              	IF 200==0
 185  0016              ;# 185 "C:\Users\mediv\Nhap\demo\HT8_I2C_Master.c" 1
 185  0016              	JMP $
 185  0016              	ENDIF
 185  0016              ;# 185 "C:\Users\mediv\Nhap\demo\HT8_I2C_Master.c" 1
 185  0016              	IF 200==1
 185  0016              ;# 185 "C:\Users\mediv\Nhap\demo\HT8_I2C_Master.c" 1
 185  0016              	NOP
 185  0016              	ENDIF
 185  0016              ;# 185 "C:\Users\mediv\Nhap\demo\HT8_I2C_Master.c" 1
 185  0016              	IF 200==2
 185  0016              ;# 185 "C:\Users\mediv\Nhap\demo\HT8_I2C_Master.c" 1
 185  0016              	NOP
 185  0016              ;# 185 "C:\Users\mediv\Nhap\demo\HT8_I2C_Master.c" 1
 185  0016              	NOP
 185  0016              	ENDIF
 185  0016              ;# 185 "C:\Users\mediv\Nhap\demo\HT8_I2C_Master.c" 1
 185  0016              	IF 200==3
 185  0016              ;# 185 "C:\Users\mediv\Nhap\demo\HT8_I2C_Master.c" 1
 185  0016              	NOP
 185  0016              ;# 185 "C:\Users\mediv\Nhap\demo\HT8_I2C_Master.c" 1
 185  0016              	NOP
 185  0016              ;# 185 "C:\Users\mediv\Nhap\demo\HT8_I2C_Master.c" 1
 185  0016              	NOP
 185  0016              	ENDIF
 185  0016              ;# 185 "C:\Users\mediv\Nhap\demo\HT8_I2C_Master.c" 1
 185  0016              	IF (200<8) AND (200>3)
 185  0016              ;# 185 "C:\Users\mediv\Nhap\demo\HT8_I2C_Master.c" 1
 185  0016              	CALL __DELAY3 + 7 -200
 185  0016              	ENDIF
 185  0016              ;# 185 "C:\Users\mediv\Nhap\demo\HT8_I2C_Master.c" 1
 185  0016              	IF (200< 0404h) AND (200>7)
 185  0016              ;# 185 "C:\Users\mediv\Nhap\demo\HT8_I2C_Master.c" 1
 185  0016  0F31        	MOV A,200/4-1
 185  0017              ;# 185 "C:\Users\mediv\Nhap\demo\HT8_I2C_Master.c" 1
 185  0017  2000     E  	CALL __DELAYX3 + 3 -(200 MOD 4)
 185  0018              	ENDIF
 185  0018              ;# 185 "C:\Users\mediv\Nhap\demo\HT8_I2C_Master.c" 1
 185  0018              	IF (200< 0x40B) AND (200> 0403h)
 185  0018              ;# 185 "C:\Users\mediv\Nhap\demo\HT8_I2C_Master.c" 1
 185  0018              	MOV A,0 
 185  0018              ;# 185 "C:\Users\mediv\Nhap\demo\HT8_I2C_Master.c" 1
 185  0018              	CALL __DELAYX6 + 0x40a -200
 185  0018              	ENDIF
 185  0018              ;# 185 "C:\Users\mediv\Nhap\demo\HT8_I2C_Master.c" 1
 185  0018              	IF (200 >= 0x40b) AND ((((200-9)%0402h)/4+1)>256)
 185  0018              ;# 185 "C:\Users\mediv\Nhap\demo\HT8_I2C_Master.c" 1
 185  0018              	MOV A,(200-9)/0402h
 185  0018              ;# 185 "C:\Users\mediv\Nhap\demo\HT8_I2C_Master.c" 1
 185  0018              	MOV _builtin_holtek_delay_2,A
 185  0018              ;# 185 "C:\Users\mediv\Nhap\demo\HT8_I2C_Master.c" 1
 185  0018              	MOV A,0
 185  0018              ;# 185 "C:\Users\mediv\Nhap\demo\HT8_I2C_Master.c" 1
 185  0018              	CALL __DELAYY5 +5- (((200-9)%0402h)%6)
 185  0018              	ENDIF
 185  0018              ;# 185 "C:\Users\mediv\Nhap\demo\HT8_I2C_Master.c" 1
 185  0018              	IF (200 >= 0x40b) AND ((((200-9)%0402h)/4+1)<=256)
 185  0018              ;# 185 "C:\Users\mediv\Nhap\demo\HT8_I2C_Master.c" 1
 185  0018              	MOV A,(200-9)/0402h
"File: HT8_I2C_Master.c  Assembler  Version HGASM0202      Page 29

 185  0018              ;# 185 "C:\Users\mediv\Nhap\demo\HT8_I2C_Master.c" 1
 185  0018              	MOV _builtin_holtek_delay_2,A
 185  0018              ;# 185 "C:\Users\mediv\Nhap\demo\HT8_I2C_Master.c" 1
 185  0018              	MOV A,((200-9)%0402h)/4+1
 185  0018              ;# 185 "C:\Users\mediv\Nhap\demo\HT8_I2C_Master.c" 1
 185  0018              	CALL __DELAYY3 +3-(((200-9)%0402h)%4)
 185  0018              	ENDIF
 186  0018              #line 186 "C:\Users\mediv\Nhap\demo\HT8_I2C_Master.c"
 186  0018  3C00     R  	sz _I2C_Flag[0].0
 186  0019  2800     R  	jmp _L28
 188  001A              #line 188 "C:\Users\mediv\Nhap\demo\HT8_I2C_Master.c"
 188  001A  3400     R  	clr _I2C_Flag[0].0
 189  001B              #line 189 "C:\Users\mediv\Nhap\demo\HT8_I2C_Master.c"
 189  001B  0700     R  	mov a,_Tx_Buff[0]
 189  001C  2000     R  	call _Wr_Byte
 190  001D              #line 190 "C:\Users\mediv\Nhap\demo\HT8_I2C_Master.c"
 190  001D  2000     R  	call _CheckACK
 190  001E  0080     E  	mov ra,a
 190  001F  0F01        	mov a,1
 190  0020  0680     E  	andm a,ra
 190  0021  3400     R  	clr _I2C_Flag[0].0
 190  0022  0700     E  	mov a,ra
 190  0023  0580     R  	orm a,_I2C_Flag[0]
 191  0024              #line 191 "C:\Users\mediv\Nhap\demo\HT8_I2C_Master.c"
 191  0024              ;# 191 "C:\Users\mediv\Nhap\demo\HT8_I2C_Master.c" 1
 191  0024              	IF 200>263690
 191  0024              ;# 191 "C:\Users\mediv\Nhap\demo\HT8_I2C_Master.c" 1
 191  0024              	ERRMESSAGE 'the value 200of the argument exceeds the maxinum 263690'
 191  0024              	ENDIF
 191  0024              ;# 191 "C:\Users\mediv\Nhap\demo\HT8_I2C_Master.c" 1
 191  0024              	IF 200<0
 191  0024              ;# 191 "C:\Users\mediv\Nhap\demo\HT8_I2C_Master.c" 1
 191  0024              	ERRMESSAGE 'the value 200 of the argument exceeds the mininum 0'
 191  0024              	ENDIF
 191  0024              ;# 191 "C:\Users\mediv\Nhap\demo\HT8_I2C_Master.c" 1
 191  0024              	IF 200==0
 191  0024              ;# 191 "C:\Users\mediv\Nhap\demo\HT8_I2C_Master.c" 1
 191  0024              	JMP $
 191  0024              	ENDIF
 191  0024              ;# 191 "C:\Users\mediv\Nhap\demo\HT8_I2C_Master.c" 1
 191  0024              	IF 200==1
 191  0024              ;# 191 "C:\Users\mediv\Nhap\demo\HT8_I2C_Master.c" 1
 191  0024              	NOP
 191  0024              	ENDIF
 191  0024              ;# 191 "C:\Users\mediv\Nhap\demo\HT8_I2C_Master.c" 1
 191  0024              	IF 200==2
 191  0024              ;# 191 "C:\Users\mediv\Nhap\demo\HT8_I2C_Master.c" 1
 191  0024              	NOP
 191  0024              ;# 191 "C:\Users\mediv\Nhap\demo\HT8_I2C_Master.c" 1
 191  0024              	NOP
 191  0024              	ENDIF
 191  0024              ;# 191 "C:\Users\mediv\Nhap\demo\HT8_I2C_Master.c" 1
 191  0024              	IF 200==3
 191  0024              ;# 191 "C:\Users\mediv\Nhap\demo\HT8_I2C_Master.c" 1
 191  0024              	NOP
 191  0024              ;# 191 "C:\Users\mediv\Nhap\demo\HT8_I2C_Master.c" 1
 191  0024              	NOP
 191  0024              ;# 191 "C:\Users\mediv\Nhap\demo\HT8_I2C_Master.c" 1
 191  0024              	NOP
 191  0024              	ENDIF
"File: HT8_I2C_Master.c  Assembler  Version HGASM0202      Page 30

 191  0024              ;# 191 "C:\Users\mediv\Nhap\demo\HT8_I2C_Master.c" 1
 191  0024              	IF (200<8) AND (200>3)
 191  0024              ;# 191 "C:\Users\mediv\Nhap\demo\HT8_I2C_Master.c" 1
 191  0024              	CALL __DELAY3 + 7 -200
 191  0024              	ENDIF
 191  0024              ;# 191 "C:\Users\mediv\Nhap\demo\HT8_I2C_Master.c" 1
 191  0024              	IF (200< 0404h) AND (200>7)
 191  0024              ;# 191 "C:\Users\mediv\Nhap\demo\HT8_I2C_Master.c" 1
 191  0024  0F31        	MOV A,200/4-1
 191  0025              ;# 191 "C:\Users\mediv\Nhap\demo\HT8_I2C_Master.c" 1
 191  0025  2000     E  	CALL __DELAYX3 + 3 -(200 MOD 4)
 191  0026              	ENDIF
 191  0026              ;# 191 "C:\Users\mediv\Nhap\demo\HT8_I2C_Master.c" 1
 191  0026              	IF (200< 0x40B) AND (200> 0403h)
 191  0026              ;# 191 "C:\Users\mediv\Nhap\demo\HT8_I2C_Master.c" 1
 191  0026              	MOV A,0 
 191  0026              ;# 191 "C:\Users\mediv\Nhap\demo\HT8_I2C_Master.c" 1
 191  0026              	CALL __DELAYX6 + 0x40a -200
 191  0026              	ENDIF
 191  0026              ;# 191 "C:\Users\mediv\Nhap\demo\HT8_I2C_Master.c" 1
 191  0026              	IF (200 >= 0x40b) AND ((((200-9)%0402h)/4+1)>256)
 191  0026              ;# 191 "C:\Users\mediv\Nhap\demo\HT8_I2C_Master.c" 1
 191  0026              	MOV A,(200-9)/0402h
 191  0026              ;# 191 "C:\Users\mediv\Nhap\demo\HT8_I2C_Master.c" 1
 191  0026              	MOV _builtin_holtek_delay_2,A
 191  0026              ;# 191 "C:\Users\mediv\Nhap\demo\HT8_I2C_Master.c" 1
 191  0026              	MOV A,0
 191  0026              ;# 191 "C:\Users\mediv\Nhap\demo\HT8_I2C_Master.c" 1
 191  0026              	CALL __DELAYY5 +5- (((200-9)%0402h)%6)
 191  0026              	ENDIF
 191  0026              ;# 191 "C:\Users\mediv\Nhap\demo\HT8_I2C_Master.c" 1
 191  0026              	IF (200 >= 0x40b) AND ((((200-9)%0402h)/4+1)<=256)
 191  0026              ;# 191 "C:\Users\mediv\Nhap\demo\HT8_I2C_Master.c" 1
 191  0026              	MOV A,(200-9)/0402h
 191  0026              ;# 191 "C:\Users\mediv\Nhap\demo\HT8_I2C_Master.c" 1
 191  0026              	MOV _builtin_holtek_delay_2,A
 191  0026              ;# 191 "C:\Users\mediv\Nhap\demo\HT8_I2C_Master.c" 1
 191  0026              	MOV A,((200-9)%0402h)/4+1
 191  0026              ;# 191 "C:\Users\mediv\Nhap\demo\HT8_I2C_Master.c" 1
 191  0026              	CALL __DELAYY3 +3-(((200-9)%0402h)%4)
 191  0026              	ENDIF
 193  0026              #line 193 "C:\Users\mediv\Nhap\demo\HT8_I2C_Master.c"
 193  0026  3C00     R  	sz _I2C_Flag[0].0
 193  0027  2800     R  	jmp _L28
 195  0028              #line 195 "C:\Users\mediv\Nhap\demo\HT8_I2C_Master.c"
 195  0028  3400     R  	clr _I2C_Flag[0].0
 196  0029              #line 196 "C:\Users\mediv\Nhap\demo\HT8_I2C_Master.c"
 196  0029  0700     R  	mov a,_Tx_Buff[1]
 196  002A  2000     R  	call _Wr_Byte
 197  002B              #line 197 "C:\Users\mediv\Nhap\demo\HT8_I2C_Master.c"
 197  002B  2000     R  	call _CheckACK
 197  002C  0080     E  	mov ra,a
 197  002D  0F01        	mov a,1
 197  002E  0680     E  	andm a,ra
 197  002F  3400     R  	clr _I2C_Flag[0].0
 197  0030  0700     E  	mov a,ra
 197  0031  0580     R  	orm a,_I2C_Flag[0]
 198  0032              #line 198 "C:\Users\mediv\Nhap\demo\HT8_I2C_Master.c"
 198  0032              ;# 198 "C:\Users\mediv\Nhap\demo\HT8_I2C_Master.c" 1
 198  0032              	IF 200>263690
"File: HT8_I2C_Master.c  Assembler  Version HGASM0202      Page 31

 198  0032              ;# 198 "C:\Users\mediv\Nhap\demo\HT8_I2C_Master.c" 1
 198  0032              	ERRMESSAGE 'the value 200of the argument exceeds the maxinum 263690'
 198  0032              	ENDIF
 198  0032              ;# 198 "C:\Users\mediv\Nhap\demo\HT8_I2C_Master.c" 1
 198  0032              	IF 200<0
 198  0032              ;# 198 "C:\Users\mediv\Nhap\demo\HT8_I2C_Master.c" 1
 198  0032              	ERRMESSAGE 'the value 200 of the argument exceeds the mininum 0'
 198  0032              	ENDIF
 198  0032              ;# 198 "C:\Users\mediv\Nhap\demo\HT8_I2C_Master.c" 1
 198  0032              	IF 200==0
 198  0032              ;# 198 "C:\Users\mediv\Nhap\demo\HT8_I2C_Master.c" 1
 198  0032              	JMP $
 198  0032              	ENDIF
 198  0032              ;# 198 "C:\Users\mediv\Nhap\demo\HT8_I2C_Master.c" 1
 198  0032              	IF 200==1
 198  0032              ;# 198 "C:\Users\mediv\Nhap\demo\HT8_I2C_Master.c" 1
 198  0032              	NOP
 198  0032              	ENDIF
 198  0032              ;# 198 "C:\Users\mediv\Nhap\demo\HT8_I2C_Master.c" 1
 198  0032              	IF 200==2
 198  0032              ;# 198 "C:\Users\mediv\Nhap\demo\HT8_I2C_Master.c" 1
 198  0032              	NOP
 198  0032              ;# 198 "C:\Users\mediv\Nhap\demo\HT8_I2C_Master.c" 1
 198  0032              	NOP
 198  0032              	ENDIF
 198  0032              ;# 198 "C:\Users\mediv\Nhap\demo\HT8_I2C_Master.c" 1
 198  0032              	IF 200==3
 198  0032              ;# 198 "C:\Users\mediv\Nhap\demo\HT8_I2C_Master.c" 1
 198  0032              	NOP
 198  0032              ;# 198 "C:\Users\mediv\Nhap\demo\HT8_I2C_Master.c" 1
 198  0032              	NOP
 198  0032              ;# 198 "C:\Users\mediv\Nhap\demo\HT8_I2C_Master.c" 1
 198  0032              	NOP
 198  0032              	ENDIF
 198  0032              ;# 198 "C:\Users\mediv\Nhap\demo\HT8_I2C_Master.c" 1
 198  0032              	IF (200<8) AND (200>3)
 198  0032              ;# 198 "C:\Users\mediv\Nhap\demo\HT8_I2C_Master.c" 1
 198  0032              	CALL __DELAY3 + 7 -200
 198  0032              	ENDIF
 198  0032              ;# 198 "C:\Users\mediv\Nhap\demo\HT8_I2C_Master.c" 1
 198  0032              	IF (200< 0404h) AND (200>7)
 198  0032              ;# 198 "C:\Users\mediv\Nhap\demo\HT8_I2C_Master.c" 1
 198  0032  0F31        	MOV A,200/4-1
 198  0033              ;# 198 "C:\Users\mediv\Nhap\demo\HT8_I2C_Master.c" 1
 198  0033  2000     E  	CALL __DELAYX3 + 3 -(200 MOD 4)
 198  0034              	ENDIF
 198  0034              ;# 198 "C:\Users\mediv\Nhap\demo\HT8_I2C_Master.c" 1
 198  0034              	IF (200< 0x40B) AND (200> 0403h)
 198  0034              ;# 198 "C:\Users\mediv\Nhap\demo\HT8_I2C_Master.c" 1
 198  0034              	MOV A,0 
 198  0034              ;# 198 "C:\Users\mediv\Nhap\demo\HT8_I2C_Master.c" 1
 198  0034              	CALL __DELAYX6 + 0x40a -200
 198  0034              	ENDIF
 198  0034              ;# 198 "C:\Users\mediv\Nhap\demo\HT8_I2C_Master.c" 1
 198  0034              	IF (200 >= 0x40b) AND ((((200-9)%0402h)/4+1)>256)
 198  0034              ;# 198 "C:\Users\mediv\Nhap\demo\HT8_I2C_Master.c" 1
 198  0034              	MOV A,(200-9)/0402h
 198  0034              ;# 198 "C:\Users\mediv\Nhap\demo\HT8_I2C_Master.c" 1
 198  0034              	MOV _builtin_holtek_delay_2,A
 198  0034              ;# 198 "C:\Users\mediv\Nhap\demo\HT8_I2C_Master.c" 1
"File: HT8_I2C_Master.c  Assembler  Version HGASM0202      Page 32

 198  0034              	MOV A,0
 198  0034              ;# 198 "C:\Users\mediv\Nhap\demo\HT8_I2C_Master.c" 1
 198  0034              	CALL __DELAYY5 +5- (((200-9)%0402h)%6)
 198  0034              	ENDIF
 198  0034              ;# 198 "C:\Users\mediv\Nhap\demo\HT8_I2C_Master.c" 1
 198  0034              	IF (200 >= 0x40b) AND ((((200-9)%0402h)/4+1)<=256)
 198  0034              ;# 198 "C:\Users\mediv\Nhap\demo\HT8_I2C_Master.c" 1
 198  0034              	MOV A,(200-9)/0402h
 198  0034              ;# 198 "C:\Users\mediv\Nhap\demo\HT8_I2C_Master.c" 1
 198  0034              	MOV _builtin_holtek_delay_2,A
 198  0034              ;# 198 "C:\Users\mediv\Nhap\demo\HT8_I2C_Master.c" 1
 198  0034              	MOV A,((200-9)%0402h)/4+1
 198  0034              ;# 198 "C:\Users\mediv\Nhap\demo\HT8_I2C_Master.c" 1
 198  0034              	CALL __DELAYY3 +3-(((200-9)%0402h)%4)
 198  0034              	ENDIF
 200  0034              #line 200 "C:\Users\mediv\Nhap\demo\HT8_I2C_Master.c"
 200  0034  3C00     R  	sz _I2C_Flag[0].0
 200  0035  2800     R  	jmp _L28
 202  0036              #line 202 "C:\Users\mediv\Nhap\demo\HT8_I2C_Master.c"
 202  0036  3400     R  	clr _I2C_Flag[0].0
 203  0037              #line 203 "C:\Users\mediv\Nhap\demo\HT8_I2C_Master.c"
 203  0037  0700     R  	mov a,_Tx_Buff[2]
 203  0038  2000     R  	call _Wr_Byte
 204  0039              #line 204 "C:\Users\mediv\Nhap\demo\HT8_I2C_Master.c"
 204  0039  2000     R  	call _CheckACK
 204  003A  0080     E  	mov ra,a
 204  003B  0F01        	mov a,1
 204  003C  0680     E  	andm a,ra
 204  003D  3400     R  	clr _I2C_Flag[0].0
 204  003E  0700     E  	mov a,ra
 204  003F  0580     R  	orm a,_I2C_Flag[0]
 205  0040              #line 205 "C:\Users\mediv\Nhap\demo\HT8_I2C_Master.c"
 205  0040              ;# 205 "C:\Users\mediv\Nhap\demo\HT8_I2C_Master.c" 1
 205  0040              	IF 200>263690
 205  0040              ;# 205 "C:\Users\mediv\Nhap\demo\HT8_I2C_Master.c" 1
 205  0040              	ERRMESSAGE 'the value 200of the argument exceeds the maxinum 263690'
 205  0040              	ENDIF
 205  0040              ;# 205 "C:\Users\mediv\Nhap\demo\HT8_I2C_Master.c" 1
 205  0040              	IF 200<0
 205  0040              ;# 205 "C:\Users\mediv\Nhap\demo\HT8_I2C_Master.c" 1
 205  0040              	ERRMESSAGE 'the value 200 of the argument exceeds the mininum 0'
 205  0040              	ENDIF
 205  0040              ;# 205 "C:\Users\mediv\Nhap\demo\HT8_I2C_Master.c" 1
 205  0040              	IF 200==0
 205  0040              ;# 205 "C:\Users\mediv\Nhap\demo\HT8_I2C_Master.c" 1
 205  0040              	JMP $
 205  0040              	ENDIF
 205  0040              ;# 205 "C:\Users\mediv\Nhap\demo\HT8_I2C_Master.c" 1
 205  0040              	IF 200==1
 205  0040              ;# 205 "C:\Users\mediv\Nhap\demo\HT8_I2C_Master.c" 1
 205  0040              	NOP
 205  0040              	ENDIF
 205  0040              ;# 205 "C:\Users\mediv\Nhap\demo\HT8_I2C_Master.c" 1
 205  0040              	IF 200==2
 205  0040              ;# 205 "C:\Users\mediv\Nhap\demo\HT8_I2C_Master.c" 1
 205  0040              	NOP
 205  0040              ;# 205 "C:\Users\mediv\Nhap\demo\HT8_I2C_Master.c" 1
 205  0040              	NOP
 205  0040              	ENDIF
 205  0040              ;# 205 "C:\Users\mediv\Nhap\demo\HT8_I2C_Master.c" 1
"File: HT8_I2C_Master.c  Assembler  Version HGASM0202      Page 33

 205  0040              	IF 200==3
 205  0040              ;# 205 "C:\Users\mediv\Nhap\demo\HT8_I2C_Master.c" 1
 205  0040              	NOP
 205  0040              ;# 205 "C:\Users\mediv\Nhap\demo\HT8_I2C_Master.c" 1
 205  0040              	NOP
 205  0040              ;# 205 "C:\Users\mediv\Nhap\demo\HT8_I2C_Master.c" 1
 205  0040              	NOP
 205  0040              	ENDIF
 205  0040              ;# 205 "C:\Users\mediv\Nhap\demo\HT8_I2C_Master.c" 1
 205  0040              	IF (200<8) AND (200>3)
 205  0040              ;# 205 "C:\Users\mediv\Nhap\demo\HT8_I2C_Master.c" 1
 205  0040              	CALL __DELAY3 + 7 -200
 205  0040              	ENDIF
 205  0040              ;# 205 "C:\Users\mediv\Nhap\demo\HT8_I2C_Master.c" 1
 205  0040              	IF (200< 0404h) AND (200>7)
 205  0040              ;# 205 "C:\Users\mediv\Nhap\demo\HT8_I2C_Master.c" 1
 205  0040  0F31        	MOV A,200/4-1
 205  0041              ;# 205 "C:\Users\mediv\Nhap\demo\HT8_I2C_Master.c" 1
 205  0041  2000     E  	CALL __DELAYX3 + 3 -(200 MOD 4)
 205  0042              	ENDIF
 205  0042              ;# 205 "C:\Users\mediv\Nhap\demo\HT8_I2C_Master.c" 1
 205  0042              	IF (200< 0x40B) AND (200> 0403h)
 205  0042              ;# 205 "C:\Users\mediv\Nhap\demo\HT8_I2C_Master.c" 1
 205  0042              	MOV A,0 
 205  0042              ;# 205 "C:\Users\mediv\Nhap\demo\HT8_I2C_Master.c" 1
 205  0042              	CALL __DELAYX6 + 0x40a -200
 205  0042              	ENDIF
 205  0042              ;# 205 "C:\Users\mediv\Nhap\demo\HT8_I2C_Master.c" 1
 205  0042              	IF (200 >= 0x40b) AND ((((200-9)%0402h)/4+1)>256)
 205  0042              ;# 205 "C:\Users\mediv\Nhap\demo\HT8_I2C_Master.c" 1
 205  0042              	MOV A,(200-9)/0402h
 205  0042              ;# 205 "C:\Users\mediv\Nhap\demo\HT8_I2C_Master.c" 1
 205  0042              	MOV _builtin_holtek_delay_2,A
 205  0042              ;# 205 "C:\Users\mediv\Nhap\demo\HT8_I2C_Master.c" 1
 205  0042              	MOV A,0
 205  0042              ;# 205 "C:\Users\mediv\Nhap\demo\HT8_I2C_Master.c" 1
 205  0042              	CALL __DELAYY5 +5- (((200-9)%0402h)%6)
 205  0042              	ENDIF
 205  0042              ;# 205 "C:\Users\mediv\Nhap\demo\HT8_I2C_Master.c" 1
 205  0042              	IF (200 >= 0x40b) AND ((((200-9)%0402h)/4+1)<=256)
 205  0042              ;# 205 "C:\Users\mediv\Nhap\demo\HT8_I2C_Master.c" 1
 205  0042              	MOV A,(200-9)/0402h
 205  0042              ;# 205 "C:\Users\mediv\Nhap\demo\HT8_I2C_Master.c" 1
 205  0042              	MOV _builtin_holtek_delay_2,A
 205  0042              ;# 205 "C:\Users\mediv\Nhap\demo\HT8_I2C_Master.c" 1
 205  0042              	MOV A,((200-9)%0402h)/4+1
 205  0042              ;# 205 "C:\Users\mediv\Nhap\demo\HT8_I2C_Master.c" 1
 205  0042              	CALL __DELAYY3 +3-(((200-9)%0402h)%4)
 205  0042              	ENDIF
 207  0042              #line 207 "C:\Users\mediv\Nhap\demo\HT8_I2C_Master.c"
 207  0042  3C00     R  	sz _I2C_Flag[0].0
 207  0043  2800     R  	jmp _L28
 209  0044              #line 209 "C:\Users\mediv\Nhap\demo\HT8_I2C_Master.c"
 209  0044  0700     R  	mov a,_Tx_Buff[1]
 209  0045  0300     R  	add a,_Tx_Buff[0]
 209  0046  0080     E  	mov ra,a
 209  0047  0700     R  	mov a,_Tx_Buff[2]
 209  0048  0380     E  	addm a,ra
 210  0049              #line 210 "C:\Users\mediv\Nhap\demo\HT8_I2C_Master.c"
 210  0049  0700     E  	mov a,ra
"File: HT8_I2C_Master.c  Assembler  Version HGASM0202      Page 34

 210  004A  2000     R  	call _Wr_Byte
 211  004B              #line 211 "C:\Users\mediv\Nhap\demo\HT8_I2C_Master.c"
 211  004B  2000     R  	call _CheckACK
 211  004C  0080     E  	mov ra,a
 211  004D  0F01        	mov a,1
 211  004E  0680     E  	andm a,ra
 211  004F  3400     R  	clr _I2C_Flag[0].0
 211  0050  0700     E  	mov a,ra
 211  0051  0580     R  	orm a,_I2C_Flag[0]
 212  0052              #line 212 "C:\Users\mediv\Nhap\demo\HT8_I2C_Master.c"
 212  0052  2800     R  	jmp _L28
 212  0053              _L23:
 252  0053              #line 252 "C:\Users\mediv\Nhap\demo\HT8_I2C_Master.c"
 252  0053  2000     R  	call _I2C_Stop
 253  0054              #line 253 "C:\Users\mediv\Nhap\demo\HT8_I2C_Master.c"
 253  0054              ;# 253 "C:\Users\mediv\Nhap\demo\HT8_I2C_Master.c" 1
 253  0054              	IF 200>263690
 253  0054              ;# 253 "C:\Users\mediv\Nhap\demo\HT8_I2C_Master.c" 1
 253  0054              	ERRMESSAGE 'the value 200of the argument exceeds the maxinum 263690'
 253  0054              	ENDIF
 253  0054              ;# 253 "C:\Users\mediv\Nhap\demo\HT8_I2C_Master.c" 1
 253  0054              	IF 200<0
 253  0054              ;# 253 "C:\Users\mediv\Nhap\demo\HT8_I2C_Master.c" 1
 253  0054              	ERRMESSAGE 'the value 200 of the argument exceeds the mininum 0'
 253  0054              	ENDIF
 253  0054              ;# 253 "C:\Users\mediv\Nhap\demo\HT8_I2C_Master.c" 1
 253  0054              	IF 200==0
 253  0054              ;# 253 "C:\Users\mediv\Nhap\demo\HT8_I2C_Master.c" 1
 253  0054              	JMP $
 253  0054              	ENDIF
 253  0054              ;# 253 "C:\Users\mediv\Nhap\demo\HT8_I2C_Master.c" 1
 253  0054              	IF 200==1
 253  0054              ;# 253 "C:\Users\mediv\Nhap\demo\HT8_I2C_Master.c" 1
 253  0054              	NOP
 253  0054              	ENDIF
 253  0054              ;# 253 "C:\Users\mediv\Nhap\demo\HT8_I2C_Master.c" 1
 253  0054              	IF 200==2
 253  0054              ;# 253 "C:\Users\mediv\Nhap\demo\HT8_I2C_Master.c" 1
 253  0054              	NOP
 253  0054              ;# 253 "C:\Users\mediv\Nhap\demo\HT8_I2C_Master.c" 1
 253  0054              	NOP
 253  0054              	ENDIF
 253  0054              ;# 253 "C:\Users\mediv\Nhap\demo\HT8_I2C_Master.c" 1
 253  0054              	IF 200==3
 253  0054              ;# 253 "C:\Users\mediv\Nhap\demo\HT8_I2C_Master.c" 1
 253  0054              	NOP
 253  0054              ;# 253 "C:\Users\mediv\Nhap\demo\HT8_I2C_Master.c" 1
 253  0054              	NOP
 253  0054              ;# 253 "C:\Users\mediv\Nhap\demo\HT8_I2C_Master.c" 1
 253  0054              	NOP
 253  0054              	ENDIF
 253  0054              ;# 253 "C:\Users\mediv\Nhap\demo\HT8_I2C_Master.c" 1
 253  0054              	IF (200<8) AND (200>3)
 253  0054              ;# 253 "C:\Users\mediv\Nhap\demo\HT8_I2C_Master.c" 1
 253  0054              	CALL __DELAY3 + 7 -200
 253  0054              	ENDIF
 253  0054              ;# 253 "C:\Users\mediv\Nhap\demo\HT8_I2C_Master.c" 1
 253  0054              	IF (200< 0404h) AND (200>7)
 253  0054              ;# 253 "C:\Users\mediv\Nhap\demo\HT8_I2C_Master.c" 1
 253  0054  0F31        	MOV A,200/4-1
"File: HT8_I2C_Master.c  Assembler  Version HGASM0202      Page 35

 253  0055              ;# 253 "C:\Users\mediv\Nhap\demo\HT8_I2C_Master.c" 1
 253  0055  2000     E  	CALL __DELAYX3 + 3 -(200 MOD 4)
 253  0056              	ENDIF
 253  0056              ;# 253 "C:\Users\mediv\Nhap\demo\HT8_I2C_Master.c" 1
 253  0056              	IF (200< 0x40B) AND (200> 0403h)
 253  0056              ;# 253 "C:\Users\mediv\Nhap\demo\HT8_I2C_Master.c" 1
 253  0056              	MOV A,0 
 253  0056              ;# 253 "C:\Users\mediv\Nhap\demo\HT8_I2C_Master.c" 1
 253  0056              	CALL __DELAYX6 + 0x40a -200
 253  0056              	ENDIF
 253  0056              ;# 253 "C:\Users\mediv\Nhap\demo\HT8_I2C_Master.c" 1
 253  0056              	IF (200 >= 0x40b) AND ((((200-9)%0402h)/4+1)>256)
 253  0056              ;# 253 "C:\Users\mediv\Nhap\demo\HT8_I2C_Master.c" 1
 253  0056              	MOV A,(200-9)/0402h
 253  0056              ;# 253 "C:\Users\mediv\Nhap\demo\HT8_I2C_Master.c" 1
 253  0056              	MOV _builtin_holtek_delay_2,A
 253  0056              ;# 253 "C:\Users\mediv\Nhap\demo\HT8_I2C_Master.c" 1
 253  0056              	MOV A,0
 253  0056              ;# 253 "C:\Users\mediv\Nhap\demo\HT8_I2C_Master.c" 1
 253  0056              	CALL __DELAYY5 +5- (((200-9)%0402h)%6)
 253  0056              	ENDIF
 253  0056              ;# 253 "C:\Users\mediv\Nhap\demo\HT8_I2C_Master.c" 1
 253  0056              	IF (200 >= 0x40b) AND ((((200-9)%0402h)/4+1)<=256)
 253  0056              ;# 253 "C:\Users\mediv\Nhap\demo\HT8_I2C_Master.c" 1
 253  0056              	MOV A,(200-9)/0402h
 253  0056              ;# 253 "C:\Users\mediv\Nhap\demo\HT8_I2C_Master.c" 1
 253  0056              	MOV _builtin_holtek_delay_2,A
 253  0056              ;# 253 "C:\Users\mediv\Nhap\demo\HT8_I2C_Master.c" 1
 253  0056              	MOV A,((200-9)%0402h)/4+1
 253  0056              ;# 253 "C:\Users\mediv\Nhap\demo\HT8_I2C_Master.c" 1
 253  0056              	CALL __DELAYY3 +3-(((200-9)%0402h)%4)
 253  0056              	ENDIF
 253  0056  1780     R  	sdz _I2C_Write_2[0]
 253  0057  2800     R  	jmp _L30
 253  0058              _L28:
 257  0058              #line 257 "C:\Users\mediv\Nhap\demo\HT8_I2C_Master.c"
 257  0058  2000     R  	call _I2C_Stop
 258  0059              #line 258 "C:\Users\mediv\Nhap\demo\HT8_I2C_Master.c"
 258  0059              ;# 258 "C:\Users\mediv\Nhap\demo\HT8_I2C_Master.c" 1
 258  0059              	IF 10>263690
 258  0059              ;# 258 "C:\Users\mediv\Nhap\demo\HT8_I2C_Master.c" 1
 258  0059              	ERRMESSAGE 'the value 10of the argument exceeds the maxinum 263690'
 258  0059              	ENDIF
 258  0059              ;# 258 "C:\Users\mediv\Nhap\demo\HT8_I2C_Master.c" 1
 258  0059              	IF 10<0
 258  0059              ;# 258 "C:\Users\mediv\Nhap\demo\HT8_I2C_Master.c" 1
 258  0059              	ERRMESSAGE 'the value 10 of the argument exceeds the mininum 0'
 258  0059              	ENDIF
 258  0059              ;# 258 "C:\Users\mediv\Nhap\demo\HT8_I2C_Master.c" 1
 258  0059              	IF 10==0
 258  0059              ;# 258 "C:\Users\mediv\Nhap\demo\HT8_I2C_Master.c" 1
 258  0059              	JMP $
 258  0059              	ENDIF
 258  0059              ;# 258 "C:\Users\mediv\Nhap\demo\HT8_I2C_Master.c" 1
 258  0059              	IF 10==1
 258  0059              ;# 258 "C:\Users\mediv\Nhap\demo\HT8_I2C_Master.c" 1
 258  0059              	NOP
 258  0059              	ENDIF
 258  0059              ;# 258 "C:\Users\mediv\Nhap\demo\HT8_I2C_Master.c" 1
 258  0059              	IF 10==2
"File: HT8_I2C_Master.c  Assembler  Version HGASM0202      Page 36

 258  0059              ;# 258 "C:\Users\mediv\Nhap\demo\HT8_I2C_Master.c" 1
 258  0059              	NOP
 258  0059              ;# 258 "C:\Users\mediv\Nhap\demo\HT8_I2C_Master.c" 1
 258  0059              	NOP
 258  0059              	ENDIF
 258  0059              ;# 258 "C:\Users\mediv\Nhap\demo\HT8_I2C_Master.c" 1
 258  0059              	IF 10==3
 258  0059              ;# 258 "C:\Users\mediv\Nhap\demo\HT8_I2C_Master.c" 1
 258  0059              	NOP
 258  0059              ;# 258 "C:\Users\mediv\Nhap\demo\HT8_I2C_Master.c" 1
 258  0059              	NOP
 258  0059              ;# 258 "C:\Users\mediv\Nhap\demo\HT8_I2C_Master.c" 1
 258  0059              	NOP
 258  0059              	ENDIF
 258  0059              ;# 258 "C:\Users\mediv\Nhap\demo\HT8_I2C_Master.c" 1
 258  0059              	IF (10<8) AND (10>3)
 258  0059              ;# 258 "C:\Users\mediv\Nhap\demo\HT8_I2C_Master.c" 1
 258  0059              	CALL __DELAY3 + 7 -10
 258  0059              	ENDIF
 258  0059              ;# 258 "C:\Users\mediv\Nhap\demo\HT8_I2C_Master.c" 1
 258  0059              	IF (10< 0404h) AND (10>7)
 258  0059              ;# 258 "C:\Users\mediv\Nhap\demo\HT8_I2C_Master.c" 1
 258  0059  0F01        	MOV A,10/4-1
 258  005A              ;# 258 "C:\Users\mediv\Nhap\demo\HT8_I2C_Master.c" 1
 258  005A  2000     E  	CALL __DELAYX3 + 3 -(10 MOD 4)
 258  005B              	ENDIF
 258  005B              ;# 258 "C:\Users\mediv\Nhap\demo\HT8_I2C_Master.c" 1
 258  005B              	IF (10< 0x40B) AND (10> 0403h)
 258  005B              ;# 258 "C:\Users\mediv\Nhap\demo\HT8_I2C_Master.c" 1
 258  005B              	MOV A,0 
 258  005B              ;# 258 "C:\Users\mediv\Nhap\demo\HT8_I2C_Master.c" 1
 258  005B              	CALL __DELAYX6 + 0x40a -10
 258  005B              	ENDIF
 258  005B              ;# 258 "C:\Users\mediv\Nhap\demo\HT8_I2C_Master.c" 1
 258  005B              	IF (10 >= 0x40b) AND ((((10-9)%0402h)/4+1)>256)
 258  005B              ;# 258 "C:\Users\mediv\Nhap\demo\HT8_I2C_Master.c" 1
 258  005B              	MOV A,(10-9)/0402h
 258  005B              ;# 258 "C:\Users\mediv\Nhap\demo\HT8_I2C_Master.c" 1
 258  005B              	MOV _builtin_holtek_delay_2,A
 258  005B              ;# 258 "C:\Users\mediv\Nhap\demo\HT8_I2C_Master.c" 1
 258  005B              	MOV A,0
 258  005B              ;# 258 "C:\Users\mediv\Nhap\demo\HT8_I2C_Master.c" 1
 258  005B              	CALL __DELAYY5 +5- (((10-9)%0402h)%6)
 258  005B              	ENDIF
 258  005B              ;# 258 "C:\Users\mediv\Nhap\demo\HT8_I2C_Master.c" 1
 258  005B              	IF (10 >= 0x40b) AND ((((10-9)%0402h)/4+1)<=256)
 258  005B              ;# 258 "C:\Users\mediv\Nhap\demo\HT8_I2C_Master.c" 1
 258  005B              	MOV A,(10-9)/0402h
 258  005B              ;# 258 "C:\Users\mediv\Nhap\demo\HT8_I2C_Master.c" 1
 258  005B              	MOV _builtin_holtek_delay_2,A
 258  005B              ;# 258 "C:\Users\mediv\Nhap\demo\HT8_I2C_Master.c" 1
 258  005B              	MOV A,((10-9)%0402h)/4+1
 258  005B              ;# 258 "C:\Users\mediv\Nhap\demo\HT8_I2C_Master.c" 1
 258  005B              	CALL __DELAYY3 +3-(((10-9)%0402h)%4)
 258  005B              	ENDIF
 258  005B  0003        	ret
 258  005C              _I2C_Write endp
 258  005C              #line 258 "C:\Users\mediv\Nhap\demo\HT8_I2C_Master.c"
 258  005C              #pragma debug scope 1 1
 258  005C              public _I2C_Read
"File: HT8_I2C_Master.c  Assembler  Version HGASM0202      Page 37

 258  005C              #pragma debug scope 9 1
 269  005C              #line 269 "C:\Users\mediv\Nhap\demo\HT8_I2C_Master.c"
 269  0000              _I2C_Read .section 'code'
 269  0000              _I2C_Read proc
 269  0000              public _I2C_Read_2
 269  0000  0007[           local _I2C_Read_2 db 7 dup(?)	; 3,4
            00
            ]
 269  0007              #pragma debug pointer 42 8 9
 269  0007              #pragma debug pointer 42 8 9
 269  0007              #pragma debug variable 42 9 _I2C_Read_2+0 "prt2"
 269  0007              #pragma debug variable 8 9 _I2C_Read_2+2 "cnt"
 269  0007              #pragma debug variable 8 9 _I2C_Read_2+4 "i"
 269  0007              #pragma debug variable 8 9 _I2C_Read_2+3 "CheckAddressCnt"
 270  0007              #line 270 "C:\Users\mediv\Nhap\demo\HT8_I2C_Master.c"
 270  0000  1F00     R  	clr _I2C_Read_2[3]
 273  0001              #line 273 "C:\Users\mediv\Nhap\demo\HT8_I2C_Master.c"
 273  0001  1F00     R  	clr _I2C_Read_2[3]
 273  0002              _L35:
 273  0002              #line 273 "C:\Users\mediv\Nhap\demo\HT8_I2C_Master.c"
 273  0002  0F04        	mov a,4
 273  0003  0200     R  	sub a,_I2C_Read_2[3]
 273  0004  380A        	snz c
 273  0005  2800     R  	jmp _L40
 275  0006              #line 275 "C:\Users\mediv\Nhap\demo\HT8_I2C_Master.c"
 275  0006  2000     R  	call _I2C_Start
 276  0007              #line 276 "C:\Users\mediv\Nhap\demo\HT8_I2C_Master.c"
 276  0007  0FD0        	mov a,208
 276  0008  2000     R  	call _Wr_Byte
 277  0009              #line 277 "C:\Users\mediv\Nhap\demo\HT8_I2C_Master.c"
 277  0009  2000     R  	call _CheckACK
 277  000A  0080     E  	mov ra,a
 277  000B  1080     E  	sz ra
 277  000C  2800     R  	jmp _L36
 277  000D              _L40:
 290  000D              #line 290 "C:\Users\mediv\Nhap\demo\HT8_I2C_Master.c"
 290  000D  0F3B        	mov a,59
 290  000E  2000     R  	call _Wr_Byte
 291  000F              #line 291 "C:\Users\mediv\Nhap\demo\HT8_I2C_Master.c"
 291  000F  2000     R  	call _CheckACK
 291  0010  0080     E  	mov ra,a
 291  0011  0F01        	mov a,1
 291  0012  0680     E  	andm a,ra
 291  0013  3400     R  	clr _I2C_Flag[0].0
 291  0014  0700     E  	mov a,ra
 291  0015  0580     R  	orm a,_I2C_Flag[0]
 293  0016              #line 293 "C:\Users\mediv\Nhap\demo\HT8_I2C_Master.c"
 293  0016  2000     R  	call _I2C_Start
 294  0017              #line 294 "C:\Users\mediv\Nhap\demo\HT8_I2C_Master.c"
 294  0017  0FD1        	mov a,209
 294  0018  2000     R  	call _Wr_Byte
 295  0019              #line 295 "C:\Users\mediv\Nhap\demo\HT8_I2C_Master.c"
 295  0019  2000     R  	call _CheckACK
 295  001A  0080     E  	mov ra,a
 295  001B  1080     E  	sz ra
 295  001C  2800     R  	jmp _LI3
 295  001D  2800     R  	jmp _L46
 295  001E              _LI3:
 297  001E              #line 297 "C:\Users\mediv\Nhap\demo\HT8_I2C_Master.c"
 297  001E  2000     R  	call _I2C_Stop
"File: HT8_I2C_Master.c  Assembler  Version HGASM0202      Page 38

 298  001F              #line 298 "C:\Users\mediv\Nhap\demo\HT8_I2C_Master.c"
 298  001F              ;# 298 "C:\Users\mediv\Nhap\demo\HT8_I2C_Master.c" 1
 298  001F              	IF 200>263690
 298  001F              ;# 298 "C:\Users\mediv\Nhap\demo\HT8_I2C_Master.c" 1
 298  001F              	ERRMESSAGE 'the value 200of the argument exceeds the maxinum 263690'
 298  001F              	ENDIF
 298  001F              ;# 298 "C:\Users\mediv\Nhap\demo\HT8_I2C_Master.c" 1
 298  001F              	IF 200<0
 298  001F              ;# 298 "C:\Users\mediv\Nhap\demo\HT8_I2C_Master.c" 1
 298  001F              	ERRMESSAGE 'the value 200 of the argument exceeds the mininum 0'
 298  001F              	ENDIF
 298  001F              ;# 298 "C:\Users\mediv\Nhap\demo\HT8_I2C_Master.c" 1
 298  001F              	IF 200==0
 298  001F              ;# 298 "C:\Users\mediv\Nhap\demo\HT8_I2C_Master.c" 1
 298  001F              	JMP $
 298  001F              	ENDIF
 298  001F              ;# 298 "C:\Users\mediv\Nhap\demo\HT8_I2C_Master.c" 1
 298  001F              	IF 200==1
 298  001F              ;# 298 "C:\Users\mediv\Nhap\demo\HT8_I2C_Master.c" 1
 298  001F              	NOP
 298  001F              	ENDIF
 298  001F              ;# 298 "C:\Users\mediv\Nhap\demo\HT8_I2C_Master.c" 1
 298  001F              	IF 200==2
 298  001F              ;# 298 "C:\Users\mediv\Nhap\demo\HT8_I2C_Master.c" 1
 298  001F              	NOP
 298  001F              ;# 298 "C:\Users\mediv\Nhap\demo\HT8_I2C_Master.c" 1
 298  001F              	NOP
 298  001F              	ENDIF
 298  001F              ;# 298 "C:\Users\mediv\Nhap\demo\HT8_I2C_Master.c" 1
 298  001F              	IF 200==3
 298  001F              ;# 298 "C:\Users\mediv\Nhap\demo\HT8_I2C_Master.c" 1
 298  001F              	NOP
 298  001F              ;# 298 "C:\Users\mediv\Nhap\demo\HT8_I2C_Master.c" 1
 298  001F              	NOP
 298  001F              ;# 298 "C:\Users\mediv\Nhap\demo\HT8_I2C_Master.c" 1
 298  001F              	NOP
 298  001F              	ENDIF
 298  001F              ;# 298 "C:\Users\mediv\Nhap\demo\HT8_I2C_Master.c" 1
 298  001F              	IF (200<8) AND (200>3)
 298  001F              ;# 298 "C:\Users\mediv\Nhap\demo\HT8_I2C_Master.c" 1
 298  001F              	CALL __DELAY3 + 7 -200
 298  001F              	ENDIF
 298  001F              ;# 298 "C:\Users\mediv\Nhap\demo\HT8_I2C_Master.c" 1
 298  001F              	IF (200< 0404h) AND (200>7)
 298  001F              ;# 298 "C:\Users\mediv\Nhap\demo\HT8_I2C_Master.c" 1
 298  001F  0F31        	MOV A,200/4-1
 298  0020              ;# 298 "C:\Users\mediv\Nhap\demo\HT8_I2C_Master.c" 1
 298  0020  2000     E  	CALL __DELAYX3 + 3 -(200 MOD 4)
 298  0021              	ENDIF
 298  0021              ;# 298 "C:\Users\mediv\Nhap\demo\HT8_I2C_Master.c" 1
 298  0021              	IF (200< 0x40B) AND (200> 0403h)
 298  0021              ;# 298 "C:\Users\mediv\Nhap\demo\HT8_I2C_Master.c" 1
 298  0021              	MOV A,0 
 298  0021              ;# 298 "C:\Users\mediv\Nhap\demo\HT8_I2C_Master.c" 1
 298  0021              	CALL __DELAYX6 + 0x40a -200
 298  0021              	ENDIF
 298  0021              ;# 298 "C:\Users\mediv\Nhap\demo\HT8_I2C_Master.c" 1
 298  0021              	IF (200 >= 0x40b) AND ((((200-9)%0402h)/4+1)>256)
 298  0021              ;# 298 "C:\Users\mediv\Nhap\demo\HT8_I2C_Master.c" 1
 298  0021              	MOV A,(200-9)/0402h
"File: HT8_I2C_Master.c  Assembler  Version HGASM0202      Page 39

 298  0021              ;# 298 "C:\Users\mediv\Nhap\demo\HT8_I2C_Master.c" 1
 298  0021              	MOV _builtin_holtek_delay_2,A
 298  0021              ;# 298 "C:\Users\mediv\Nhap\demo\HT8_I2C_Master.c" 1
 298  0021              	MOV A,0
 298  0021              ;# 298 "C:\Users\mediv\Nhap\demo\HT8_I2C_Master.c" 1
 298  0021              	CALL __DELAYY5 +5- (((200-9)%0402h)%6)
 298  0021              	ENDIF
 298  0021              ;# 298 "C:\Users\mediv\Nhap\demo\HT8_I2C_Master.c" 1
 298  0021              	IF (200 >= 0x40b) AND ((((200-9)%0402h)/4+1)<=256)
 298  0021              ;# 298 "C:\Users\mediv\Nhap\demo\HT8_I2C_Master.c" 1
 298  0021              	MOV A,(200-9)/0402h
 298  0021              ;# 298 "C:\Users\mediv\Nhap\demo\HT8_I2C_Master.c" 1
 298  0021              	MOV _builtin_holtek_delay_2,A
 298  0021              ;# 298 "C:\Users\mediv\Nhap\demo\HT8_I2C_Master.c" 1
 298  0021              	MOV A,((200-9)%0402h)/4+1
 298  0021              ;# 298 "C:\Users\mediv\Nhap\demo\HT8_I2C_Master.c" 1
 298  0021              	CALL __DELAYY3 +3-(((200-9)%0402h)%4)
 298  0021              	ENDIF
 298  0021  2800     R  	jmp _L34
 298  0022              _L36:
 279  0022              #line 279 "C:\Users\mediv\Nhap\demo\HT8_I2C_Master.c"
 279  0022  2000     R  	call _I2C_Stop
 280  0023              #line 280 "C:\Users\mediv\Nhap\demo\HT8_I2C_Master.c"
 280  0023              ;# 280 "C:\Users\mediv\Nhap\demo\HT8_I2C_Master.c" 1
 280  0023              	IF 200>263690
 280  0023              ;# 280 "C:\Users\mediv\Nhap\demo\HT8_I2C_Master.c" 1
 280  0023              	ERRMESSAGE 'the value 200of the argument exceeds the maxinum 263690'
 280  0023              	ENDIF
 280  0023              ;# 280 "C:\Users\mediv\Nhap\demo\HT8_I2C_Master.c" 1
 280  0023              	IF 200<0
 280  0023              ;# 280 "C:\Users\mediv\Nhap\demo\HT8_I2C_Master.c" 1
 280  0023              	ERRMESSAGE 'the value 200 of the argument exceeds the mininum 0'
 280  0023              	ENDIF
 280  0023              ;# 280 "C:\Users\mediv\Nhap\demo\HT8_I2C_Master.c" 1
 280  0023              	IF 200==0
 280  0023              ;# 280 "C:\Users\mediv\Nhap\demo\HT8_I2C_Master.c" 1
 280  0023              	JMP $
 280  0023              	ENDIF
 280  0023              ;# 280 "C:\Users\mediv\Nhap\demo\HT8_I2C_Master.c" 1
 280  0023              	IF 200==1
 280  0023              ;# 280 "C:\Users\mediv\Nhap\demo\HT8_I2C_Master.c" 1
 280  0023              	NOP
 280  0023              	ENDIF
 280  0023              ;# 280 "C:\Users\mediv\Nhap\demo\HT8_I2C_Master.c" 1
 280  0023              	IF 200==2
 280  0023              ;# 280 "C:\Users\mediv\Nhap\demo\HT8_I2C_Master.c" 1
 280  0023              	NOP
 280  0023              ;# 280 "C:\Users\mediv\Nhap\demo\HT8_I2C_Master.c" 1
 280  0023              	NOP
 280  0023              	ENDIF
 280  0023              ;# 280 "C:\Users\mediv\Nhap\demo\HT8_I2C_Master.c" 1
 280  0023              	IF 200==3
 280  0023              ;# 280 "C:\Users\mediv\Nhap\demo\HT8_I2C_Master.c" 1
 280  0023              	NOP
 280  0023              ;# 280 "C:\Users\mediv\Nhap\demo\HT8_I2C_Master.c" 1
 280  0023              	NOP
 280  0023              ;# 280 "C:\Users\mediv\Nhap\demo\HT8_I2C_Master.c" 1
 280  0023              	NOP
 280  0023              	ENDIF
 280  0023              ;# 280 "C:\Users\mediv\Nhap\demo\HT8_I2C_Master.c" 1
"File: HT8_I2C_Master.c  Assembler  Version HGASM0202      Page 40

 280  0023              	IF (200<8) AND (200>3)
 280  0023              ;# 280 "C:\Users\mediv\Nhap\demo\HT8_I2C_Master.c" 1
 280  0023              	CALL __DELAY3 + 7 -200
 280  0023              	ENDIF
 280  0023              ;# 280 "C:\Users\mediv\Nhap\demo\HT8_I2C_Master.c" 1
 280  0023              	IF (200< 0404h) AND (200>7)
 280  0023              ;# 280 "C:\Users\mediv\Nhap\demo\HT8_I2C_Master.c" 1
 280  0023  0F31        	MOV A,200/4-1
 280  0024              ;# 280 "C:\Users\mediv\Nhap\demo\HT8_I2C_Master.c" 1
 280  0024  2000     E  	CALL __DELAYX3 + 3 -(200 MOD 4)
 280  0025              	ENDIF
 280  0025              ;# 280 "C:\Users\mediv\Nhap\demo\HT8_I2C_Master.c" 1
 280  0025              	IF (200< 0x40B) AND (200> 0403h)
 280  0025              ;# 280 "C:\Users\mediv\Nhap\demo\HT8_I2C_Master.c" 1
 280  0025              	MOV A,0 
 280  0025              ;# 280 "C:\Users\mediv\Nhap\demo\HT8_I2C_Master.c" 1
 280  0025              	CALL __DELAYX6 + 0x40a -200
 280  0025              	ENDIF
 280  0025              ;# 280 "C:\Users\mediv\Nhap\demo\HT8_I2C_Master.c" 1
 280  0025              	IF (200 >= 0x40b) AND ((((200-9)%0402h)/4+1)>256)
 280  0025              ;# 280 "C:\Users\mediv\Nhap\demo\HT8_I2C_Master.c" 1
 280  0025              	MOV A,(200-9)/0402h
 280  0025              ;# 280 "C:\Users\mediv\Nhap\demo\HT8_I2C_Master.c" 1
 280  0025              	MOV _builtin_holtek_delay_2,A
 280  0025              ;# 280 "C:\Users\mediv\Nhap\demo\HT8_I2C_Master.c" 1
 280  0025              	MOV A,0
 280  0025              ;# 280 "C:\Users\mediv\Nhap\demo\HT8_I2C_Master.c" 1
 280  0025              	CALL __DELAYY5 +5- (((200-9)%0402h)%6)
 280  0025              	ENDIF
 280  0025              ;# 280 "C:\Users\mediv\Nhap\demo\HT8_I2C_Master.c" 1
 280  0025              	IF (200 >= 0x40b) AND ((((200-9)%0402h)/4+1)<=256)
 280  0025              ;# 280 "C:\Users\mediv\Nhap\demo\HT8_I2C_Master.c" 1
 280  0025              	MOV A,(200-9)/0402h
 280  0025              ;# 280 "C:\Users\mediv\Nhap\demo\HT8_I2C_Master.c" 1
 280  0025              	MOV _builtin_holtek_delay_2,A
 280  0025              ;# 280 "C:\Users\mediv\Nhap\demo\HT8_I2C_Master.c" 1
 280  0025              	MOV A,((200-9)%0402h)/4+1
 280  0025              ;# 280 "C:\Users\mediv\Nhap\demo\HT8_I2C_Master.c" 1
 280  0025              	CALL __DELAYY3 +3-(((200-9)%0402h)%4)
 280  0025              	ENDIF
 281  0025              #line 281 "C:\Users\mediv\Nhap\demo\HT8_I2C_Master.c"
 281  0025  1580     R  	dec _I2C_Read_2[3]
 273  0026              #line 273 "C:\Users\mediv\Nhap\demo\HT8_I2C_Master.c"
 273  0026  1480     R  	inc _I2C_Read_2[3]
 273  0027  2800     R  	jmp _L35
 273  0028              _L46:
 302  0028              #line 302 "C:\Users\mediv\Nhap\demo\HT8_I2C_Master.c"
 302  0028  1F00     R  	clr _I2C_Read_2[4]
 302  0029              _L42:
 302  0029  0700     R  	mov a,_I2C_Read_2[4]
 302  002A  0200     R  	sub a,_I2C_Read_2[2]
 302  002B  3C0A        	sz c
 302  002C  2800     R  	jmp _L47
 304  002D              #line 304 "C:\Users\mediv\Nhap\demo\HT8_I2C_Master.c"
 304  002D  0700     R  	mov a,_I2C_Read_2[4]
 304  002E  0300     R  	add a,_I2C_Read_2[0]
 304  002F  0080     R  	mov _I2C_Read_2[5],a
 304  0030  1F05        	clr acc
 304  0031  1300     R  	adc a,_I2C_Read_2[1]
 304  0032  0080     R  	mov _I2C_Read_2[6],a
"File: HT8_I2C_Master.c  Assembler  Version HGASM0202      Page 41

 304  0033  2000     R  	call _Rd_Byte
 304  0034  0080     E  	mov ra,a
 304  0035  0700     R  	mov a,_I2C_Read_2[5]
 304  0036  0083        	mov mp,a
 304  0037  0700     R  	mov a,_I2C_Read_2[6]
 304  0038  0081        	mov sbp,a
 304  0039  0701        	mov a,sbp
 304  003A  0084        	mov bp,a
 304  003B  0700     E  	mov a,ra
 304  003C  0082        	mov ir,a
 305  003D              #line 305 "C:\Users\mediv\Nhap\demo\HT8_I2C_Master.c"
 305  003D  3595        	clr [21].3
 306  003E              #line 306 "C:\Users\mediv\Nhap\demo\HT8_I2C_Master.c"
 306  003E  0700     R  	mov a,_I2C_Read_2[4]
 306  003F  0080     E  	mov rd,a
 306  0040  1F00     E  	clr re
 306  0041  0FFF        	mov a,255
 306  0042  0300     R  	add a,_I2C_Read_2[2]
 306  0043  0080     E  	mov rb,a
 306  0044  0FFF        	mov a,255
 306  0045  1F00     E  	clr rc
 306  0046  1380     E  	adcm a,rc
 306  0047  0700     E  	mov a,rd
 306  0048  0200     E  	sub a,rb
 306  0049  0700     E  	mov a,re
 306  004A  1200     E  	sbc a,rc
 306  004B  1185        	swap acc
 306  004C  040A        	xor a,status
 306  004D  3D85        	sz acc.3
 306  004E  2800     R  	jmp _L43
 307  004F              #line 307 "C:\Users\mediv\Nhap\demo\HT8_I2C_Master.c"
 307  004F  3194        	set [20].3
 307  0050  2800     R  	jmp _L44
 307  0051              _L43:
 309  0051              #line 309 "C:\Users\mediv\Nhap\demo\HT8_I2C_Master.c"
 309  0051  3594        	clr [20].3
 309  0052              _L44:
 310  0052              #line 310 "C:\Users\mediv\Nhap\demo\HT8_I2C_Master.c"
 310  0052  3595        	clr [21].3
 310  0053              ;# 310 "C:\Users\mediv\Nhap\demo\HT8_I2C_Master.c" 1
 310  0053              	IF 40>263690
 310  0053              ;# 310 "C:\Users\mediv\Nhap\demo\HT8_I2C_Master.c" 1
 310  0053              	ERRMESSAGE 'the value 40of the argument exceeds the maxinum 263690'
 310  0053              	ENDIF
 310  0053              ;# 310 "C:\Users\mediv\Nhap\demo\HT8_I2C_Master.c" 1
 310  0053              	IF 40<0
 310  0053              ;# 310 "C:\Users\mediv\Nhap\demo\HT8_I2C_Master.c" 1
 310  0053              	ERRMESSAGE 'the value 40 of the argument exceeds the mininum 0'
 310  0053              	ENDIF
 310  0053              ;# 310 "C:\Users\mediv\Nhap\demo\HT8_I2C_Master.c" 1
 310  0053              	IF 40==0
 310  0053              ;# 310 "C:\Users\mediv\Nhap\demo\HT8_I2C_Master.c" 1
 310  0053              	JMP $
 310  0053              	ENDIF
 310  0053              ;# 310 "C:\Users\mediv\Nhap\demo\HT8_I2C_Master.c" 1
 310  0053              	IF 40==1
 310  0053              ;# 310 "C:\Users\mediv\Nhap\demo\HT8_I2C_Master.c" 1
 310  0053              	NOP
 310  0053              	ENDIF
 310  0053              ;# 310 "C:\Users\mediv\Nhap\demo\HT8_I2C_Master.c" 1
"File: HT8_I2C_Master.c  Assembler  Version HGASM0202      Page 42

 310  0053              	IF 40==2
 310  0053              ;# 310 "C:\Users\mediv\Nhap\demo\HT8_I2C_Master.c" 1
 310  0053              	NOP
 310  0053              ;# 310 "C:\Users\mediv\Nhap\demo\HT8_I2C_Master.c" 1
 310  0053              	NOP
 310  0053              	ENDIF
 310  0053              ;# 310 "C:\Users\mediv\Nhap\demo\HT8_I2C_Master.c" 1
 310  0053              	IF 40==3
 310  0053              ;# 310 "C:\Users\mediv\Nhap\demo\HT8_I2C_Master.c" 1
 310  0053              	NOP
 310  0053              ;# 310 "C:\Users\mediv\Nhap\demo\HT8_I2C_Master.c" 1
 310  0053              	NOP
 310  0053              ;# 310 "C:\Users\mediv\Nhap\demo\HT8_I2C_Master.c" 1
 310  0053              	NOP
 310  0053              	ENDIF
 310  0053              ;# 310 "C:\Users\mediv\Nhap\demo\HT8_I2C_Master.c" 1
 310  0053              	IF (40<8) AND (40>3)
 310  0053              ;# 310 "C:\Users\mediv\Nhap\demo\HT8_I2C_Master.c" 1
 310  0053              	CALL __DELAY3 + 7 -40
 310  0053              	ENDIF
 310  0053              ;# 310 "C:\Users\mediv\Nhap\demo\HT8_I2C_Master.c" 1
 310  0053              	IF (40< 0404h) AND (40>7)
 310  0053              ;# 310 "C:\Users\mediv\Nhap\demo\HT8_I2C_Master.c" 1
 310  0053  0F09        	MOV A,40/4-1
 310  0054              ;# 310 "C:\Users\mediv\Nhap\demo\HT8_I2C_Master.c" 1
 310  0054  2000     E  	CALL __DELAYX3 + 3 -(40 MOD 4)
 310  0055              	ENDIF
 310  0055              ;# 310 "C:\Users\mediv\Nhap\demo\HT8_I2C_Master.c" 1
 310  0055              	IF (40< 0x40B) AND (40> 0403h)
 310  0055              ;# 310 "C:\Users\mediv\Nhap\demo\HT8_I2C_Master.c" 1
 310  0055              	MOV A,0 
 310  0055              ;# 310 "C:\Users\mediv\Nhap\demo\HT8_I2C_Master.c" 1
 310  0055              	CALL __DELAYX6 + 0x40a -40
 310  0055              	ENDIF
 310  0055              ;# 310 "C:\Users\mediv\Nhap\demo\HT8_I2C_Master.c" 1
 310  0055              	IF (40 >= 0x40b) AND ((((40-9)%0402h)/4+1)>256)
 310  0055              ;# 310 "C:\Users\mediv\Nhap\demo\HT8_I2C_Master.c" 1
 310  0055              	MOV A,(40-9)/0402h
 310  0055              ;# 310 "C:\Users\mediv\Nhap\demo\HT8_I2C_Master.c" 1
 310  0055              	MOV _builtin_holtek_delay_2,A
 310  0055              ;# 310 "C:\Users\mediv\Nhap\demo\HT8_I2C_Master.c" 1
 310  0055              	MOV A,0
 310  0055              ;# 310 "C:\Users\mediv\Nhap\demo\HT8_I2C_Master.c" 1
 310  0055              	CALL __DELAYY5 +5- (((40-9)%0402h)%6)
 310  0055              	ENDIF
 310  0055              ;# 310 "C:\Users\mediv\Nhap\demo\HT8_I2C_Master.c" 1
 310  0055              	IF (40 >= 0x40b) AND ((((40-9)%0402h)/4+1)<=256)
 310  0055              ;# 310 "C:\Users\mediv\Nhap\demo\HT8_I2C_Master.c" 1
 310  0055              	MOV A,(40-9)/0402h
 310  0055              ;# 310 "C:\Users\mediv\Nhap\demo\HT8_I2C_Master.c" 1
 310  0055              	MOV _builtin_holtek_delay_2,A
 310  0055              ;# 310 "C:\Users\mediv\Nhap\demo\HT8_I2C_Master.c" 1
 310  0055              	MOV A,((40-9)%0402h)/4+1
 310  0055              ;# 310 "C:\Users\mediv\Nhap\demo\HT8_I2C_Master.c" 1
 310  0055              	CALL __DELAYY3 +3-(((40-9)%0402h)%4)
 310  0055              	ENDIF
 311  0055              #line 311 "C:\Users\mediv\Nhap\demo\HT8_I2C_Master.c"
 311  0055  3325        	set [37].6
 311  0056              ;# 311 "C:\Users\mediv\Nhap\demo\HT8_I2C_Master.c" 1
 311  0056              	IF 40>263690
"File: HT8_I2C_Master.c  Assembler  Version HGASM0202      Page 43

 311  0056              ;# 311 "C:\Users\mediv\Nhap\demo\HT8_I2C_Master.c" 1
 311  0056              	ERRMESSAGE 'the value 40of the argument exceeds the maxinum 263690'
 311  0056              	ENDIF
 311  0056              ;# 311 "C:\Users\mediv\Nhap\demo\HT8_I2C_Master.c" 1
 311  0056              	IF 40<0
 311  0056              ;# 311 "C:\Users\mediv\Nhap\demo\HT8_I2C_Master.c" 1
 311  0056              	ERRMESSAGE 'the value 40 of the argument exceeds the mininum 0'
 311  0056              	ENDIF
 311  0056              ;# 311 "C:\Users\mediv\Nhap\demo\HT8_I2C_Master.c" 1
 311  0056              	IF 40==0
 311  0056              ;# 311 "C:\Users\mediv\Nhap\demo\HT8_I2C_Master.c" 1
 311  0056              	JMP $
 311  0056              	ENDIF
 311  0056              ;# 311 "C:\Users\mediv\Nhap\demo\HT8_I2C_Master.c" 1
 311  0056              	IF 40==1
 311  0056              ;# 311 "C:\Users\mediv\Nhap\demo\HT8_I2C_Master.c" 1
 311  0056              	NOP
 311  0056              	ENDIF
 311  0056              ;# 311 "C:\Users\mediv\Nhap\demo\HT8_I2C_Master.c" 1
 311  0056              	IF 40==2
 311  0056              ;# 311 "C:\Users\mediv\Nhap\demo\HT8_I2C_Master.c" 1
 311  0056              	NOP
 311  0056              ;# 311 "C:\Users\mediv\Nhap\demo\HT8_I2C_Master.c" 1
 311  0056              	NOP
 311  0056              	ENDIF
 311  0056              ;# 311 "C:\Users\mediv\Nhap\demo\HT8_I2C_Master.c" 1
 311  0056              	IF 40==3
 311  0056              ;# 311 "C:\Users\mediv\Nhap\demo\HT8_I2C_Master.c" 1
 311  0056              	NOP
 311  0056              ;# 311 "C:\Users\mediv\Nhap\demo\HT8_I2C_Master.c" 1
 311  0056              	NOP
 311  0056              ;# 311 "C:\Users\mediv\Nhap\demo\HT8_I2C_Master.c" 1
 311  0056              	NOP
 311  0056              	ENDIF
 311  0056              ;# 311 "C:\Users\mediv\Nhap\demo\HT8_I2C_Master.c" 1
 311  0056              	IF (40<8) AND (40>3)
 311  0056              ;# 311 "C:\Users\mediv\Nhap\demo\HT8_I2C_Master.c" 1
 311  0056              	CALL __DELAY3 + 7 -40
 311  0056              	ENDIF
 311  0056              ;# 311 "C:\Users\mediv\Nhap\demo\HT8_I2C_Master.c" 1
 311  0056              	IF (40< 0404h) AND (40>7)
 311  0056              ;# 311 "C:\Users\mediv\Nhap\demo\HT8_I2C_Master.c" 1
 311  0056  0F09        	MOV A,40/4-1
 311  0057              ;# 311 "C:\Users\mediv\Nhap\demo\HT8_I2C_Master.c" 1
 311  0057  2000     E  	CALL __DELAYX3 + 3 -(40 MOD 4)
 311  0058              	ENDIF
 311  0058              ;# 311 "C:\Users\mediv\Nhap\demo\HT8_I2C_Master.c" 1
 311  0058              	IF (40< 0x40B) AND (40> 0403h)
 311  0058              ;# 311 "C:\Users\mediv\Nhap\demo\HT8_I2C_Master.c" 1
 311  0058              	MOV A,0 
 311  0058              ;# 311 "C:\Users\mediv\Nhap\demo\HT8_I2C_Master.c" 1
 311  0058              	CALL __DELAYX6 + 0x40a -40
 311  0058              	ENDIF
 311  0058              ;# 311 "C:\Users\mediv\Nhap\demo\HT8_I2C_Master.c" 1
 311  0058              	IF (40 >= 0x40b) AND ((((40-9)%0402h)/4+1)>256)
 311  0058              ;# 311 "C:\Users\mediv\Nhap\demo\HT8_I2C_Master.c" 1
 311  0058              	MOV A,(40-9)/0402h
 311  0058              ;# 311 "C:\Users\mediv\Nhap\demo\HT8_I2C_Master.c" 1
 311  0058              	MOV _builtin_holtek_delay_2,A
 311  0058              ;# 311 "C:\Users\mediv\Nhap\demo\HT8_I2C_Master.c" 1
"File: HT8_I2C_Master.c  Assembler  Version HGASM0202      Page 44

 311  0058              	MOV A,0
 311  0058              ;# 311 "C:\Users\mediv\Nhap\demo\HT8_I2C_Master.c" 1
 311  0058              	CALL __DELAYY5 +5- (((40-9)%0402h)%6)
 311  0058              	ENDIF
 311  0058              ;# 311 "C:\Users\mediv\Nhap\demo\HT8_I2C_Master.c" 1
 311  0058              	IF (40 >= 0x40b) AND ((((40-9)%0402h)/4+1)<=256)
 311  0058              ;# 311 "C:\Users\mediv\Nhap\demo\HT8_I2C_Master.c" 1
 311  0058              	MOV A,(40-9)/0402h
 311  0058              ;# 311 "C:\Users\mediv\Nhap\demo\HT8_I2C_Master.c" 1
 311  0058              	MOV _builtin_holtek_delay_2,A
 311  0058              ;# 311 "C:\Users\mediv\Nhap\demo\HT8_I2C_Master.c" 1
 311  0058              	MOV A,((40-9)%0402h)/4+1
 311  0058              ;# 311 "C:\Users\mediv\Nhap\demo\HT8_I2C_Master.c" 1
 311  0058              	CALL __DELAYY3 +3-(((40-9)%0402h)%4)
 311  0058              	ENDIF
 312  0058              #line 312 "C:\Users\mediv\Nhap\demo\HT8_I2C_Master.c"
 312  0058  3725        	clr [37].6
 312  0059              ;# 312 "C:\Users\mediv\Nhap\demo\HT8_I2C_Master.c" 1
 312  0059              	IF 40>263690
 312  0059              ;# 312 "C:\Users\mediv\Nhap\demo\HT8_I2C_Master.c" 1
 312  0059              	ERRMESSAGE 'the value 40of the argument exceeds the maxinum 263690'
 312  0059              	ENDIF
 312  0059              ;# 312 "C:\Users\mediv\Nhap\demo\HT8_I2C_Master.c" 1
 312  0059              	IF 40<0
 312  0059              ;# 312 "C:\Users\mediv\Nhap\demo\HT8_I2C_Master.c" 1
 312  0059              	ERRMESSAGE 'the value 40 of the argument exceeds the mininum 0'
 312  0059              	ENDIF
 312  0059              ;# 312 "C:\Users\mediv\Nhap\demo\HT8_I2C_Master.c" 1
 312  0059              	IF 40==0
 312  0059              ;# 312 "C:\Users\mediv\Nhap\demo\HT8_I2C_Master.c" 1
 312  0059              	JMP $
 312  0059              	ENDIF
 312  0059              ;# 312 "C:\Users\mediv\Nhap\demo\HT8_I2C_Master.c" 1
 312  0059              	IF 40==1
 312  0059              ;# 312 "C:\Users\mediv\Nhap\demo\HT8_I2C_Master.c" 1
 312  0059              	NOP
 312  0059              	ENDIF
 312  0059              ;# 312 "C:\Users\mediv\Nhap\demo\HT8_I2C_Master.c" 1
 312  0059              	IF 40==2
 312  0059              ;# 312 "C:\Users\mediv\Nhap\demo\HT8_I2C_Master.c" 1
 312  0059              	NOP
 312  0059              ;# 312 "C:\Users\mediv\Nhap\demo\HT8_I2C_Master.c" 1
 312  0059              	NOP
 312  0059              	ENDIF
 312  0059              ;# 312 "C:\Users\mediv\Nhap\demo\HT8_I2C_Master.c" 1
 312  0059              	IF 40==3
 312  0059              ;# 312 "C:\Users\mediv\Nhap\demo\HT8_I2C_Master.c" 1
 312  0059              	NOP
 312  0059              ;# 312 "C:\Users\mediv\Nhap\demo\HT8_I2C_Master.c" 1
 312  0059              	NOP
 312  0059              ;# 312 "C:\Users\mediv\Nhap\demo\HT8_I2C_Master.c" 1
 312  0059              	NOP
 312  0059              	ENDIF
 312  0059              ;# 312 "C:\Users\mediv\Nhap\demo\HT8_I2C_Master.c" 1
 312  0059              	IF (40<8) AND (40>3)
 312  0059              ;# 312 "C:\Users\mediv\Nhap\demo\HT8_I2C_Master.c" 1
 312  0059              	CALL __DELAY3 + 7 -40
 312  0059              	ENDIF
 312  0059              ;# 312 "C:\Users\mediv\Nhap\demo\HT8_I2C_Master.c" 1
 312  0059              	IF (40< 0404h) AND (40>7)
"File: HT8_I2C_Master.c  Assembler  Version HGASM0202      Page 45

 312  0059              ;# 312 "C:\Users\mediv\Nhap\demo\HT8_I2C_Master.c" 1
 312  0059  0F09        	MOV A,40/4-1
 312  005A              ;# 312 "C:\Users\mediv\Nhap\demo\HT8_I2C_Master.c" 1
 312  005A  2000     E  	CALL __DELAYX3 + 3 -(40 MOD 4)
 312  005B              	ENDIF
 312  005B              ;# 312 "C:\Users\mediv\Nhap\demo\HT8_I2C_Master.c" 1
 312  005B              	IF (40< 0x40B) AND (40> 0403h)
 312  005B              ;# 312 "C:\Users\mediv\Nhap\demo\HT8_I2C_Master.c" 1
 312  005B              	MOV A,0 
 312  005B              ;# 312 "C:\Users\mediv\Nhap\demo\HT8_I2C_Master.c" 1
 312  005B              	CALL __DELAYX6 + 0x40a -40
 312  005B              	ENDIF
 312  005B              ;# 312 "C:\Users\mediv\Nhap\demo\HT8_I2C_Master.c" 1
 312  005B              	IF (40 >= 0x40b) AND ((((40-9)%0402h)/4+1)>256)
 312  005B              ;# 312 "C:\Users\mediv\Nhap\demo\HT8_I2C_Master.c" 1
 312  005B              	MOV A,(40-9)/0402h
 312  005B              ;# 312 "C:\Users\mediv\Nhap\demo\HT8_I2C_Master.c" 1
 312  005B              	MOV _builtin_holtek_delay_2,A
 312  005B              ;# 312 "C:\Users\mediv\Nhap\demo\HT8_I2C_Master.c" 1
 312  005B              	MOV A,0
 312  005B              ;# 312 "C:\Users\mediv\Nhap\demo\HT8_I2C_Master.c" 1
 312  005B              	CALL __DELAYY5 +5- (((40-9)%0402h)%6)
 312  005B              	ENDIF
 312  005B              ;# 312 "C:\Users\mediv\Nhap\demo\HT8_I2C_Master.c" 1
 312  005B              	IF (40 >= 0x40b) AND ((((40-9)%0402h)/4+1)<=256)
 312  005B              ;# 312 "C:\Users\mediv\Nhap\demo\HT8_I2C_Master.c" 1
 312  005B              	MOV A,(40-9)/0402h
 312  005B              ;# 312 "C:\Users\mediv\Nhap\demo\HT8_I2C_Master.c" 1
 312  005B              	MOV _builtin_holtek_delay_2,A
 312  005B              ;# 312 "C:\Users\mediv\Nhap\demo\HT8_I2C_Master.c" 1
 312  005B              	MOV A,((40-9)%0402h)/4+1
 312  005B              ;# 312 "C:\Users\mediv\Nhap\demo\HT8_I2C_Master.c" 1
 312  005B              	CALL __DELAYY3 +3-(((40-9)%0402h)%4)
 312  005B              	ENDIF
 302  005B              #line 302 "C:\Users\mediv\Nhap\demo\HT8_I2C_Master.c"
 302  005B  1480     R  	inc _I2C_Read_2[4]
 302  005C  2800     R  	jmp _L42
 302  005D              _L47:
 314  005D              #line 314 "C:\Users\mediv\Nhap\demo\HT8_I2C_Master.c"
 314  005D  2000     R  	call _I2C_Stop
 314  005E              _L34:
 314  005E  0003        	ret
 314  005F              _I2C_Read endp
 314  005F              #line 314 "C:\Users\mediv\Nhap\demo\HT8_I2C_Master.c"
 314  005F              #pragma debug scope 1 1
  37  005F              #line 37 "C:\Users\mediv\Nhap\demo\HT8_I2C_Master.c"
  37  005F              public _Tx_Data
  37  0000              @HCCINIT0 .section 'data'
  37  0000  0004[       _Tx_Data	db 4 dup(0)
            00
            ]
  37  0004              #pragma debug array 43 8 4 1
  37  0004              #pragma debug array 43 8 4 1
  37  0004              #pragma debug variable 43 1 _Tx_Data "Tx_Data"
  37  0004              
  37  0000              @HCCINIT .section 'data'
  36  0000              #line 36 "C:\Users\mediv\Nhap\demo\HT8_I2C_Master.c"
  36  0000              public _Tx_Buff
  36  0004              @HCCINIT0 .section 'data'
  36  0004  0004[       _Tx_Buff	db 4 dup(0)
"File: HT8_I2C_Master.c  Assembler  Version HGASM0202      Page 46

            00
            ]
  36  0008              #pragma debug variable 43 1 _Tx_Buff "Tx_Buff"
  36  0008              
  36  0000              @HCCINIT .section 'data'
  35  0000              #line 35 "C:\Users\mediv\Nhap\demo\HT8_I2C_Master.c"
  35  0000              public _I2C_Flag
  35  0008              @HCCINIT0 .section 'data'
  35  0008              _I2C_Flag	db 0
  35  0009              #pragma debug struct_end
  35  0009              #pragma debug struct_end
  35  0009              #pragma debug union_end
  35  0009              #pragma debug union_end
  35  0009              #pragma debug variable 45 1 _I2C_Flag "I2C_Flag"
  35  0009              
  35  0000              @HCCINIT .section 'data'
  35  0000              #pragma debug struct_end
  35  0000              #pragma debug struct_end
  35  0000              #pragma debug union_end
  35  0000              #pragma debug union_end
  35  0000              #pragma debug variable 47 1 ___pa "__pa" 1
  35  0000              #pragma debug struct_end
  35  0000              #pragma debug struct_end
  35  0000              #pragma debug union_end
  35  0000              #pragma debug union_end
  35  0000              #pragma debug variable 49 1 ___pac "__pac" 1
  35  0000              #pragma debug struct_end
  35  0000              #pragma debug struct_end
  35  0000              #pragma debug union_end
  35  0000              #pragma debug union_end
  35  0000              #pragma debug variable 51 1 ___papu "__papu" 1
  35  0000              #pragma debug struct_end
  35  0000              #pragma debug struct_end
  35  0000              #pragma debug union_end
  35  0000              #pragma debug union_end
  35  0000              #pragma debug variable 53 1 ___pb "__pb" 1
  35  0000              #pragma debug struct_end
  35  0000              #pragma debug struct_end
  35  0000              #pragma debug union_end
  35  0000              #pragma debug union_end
  35  0000              #pragma debug variable 55 1 ___pbc "__pbc" 1
  35  0000              #pragma debug struct_end
  35  0000              #pragma debug struct_end
  35  0000              #pragma debug union_end
  35  0000              #pragma debug union_end
  35  0000              #pragma debug variable 57 1 ___pbpu "__pbpu" 1
  35  0000              #pragma debug struct_end
  35  0000              #pragma debug struct_end
  35  0000              #pragma debug union_end
  35  0000              #pragma debug union_end
  35  0000              #pragma debug variable 59 1 ___cpc "__cpc" 1
  35  0000              
  35  0000              ; 
  35  0000              ; Generated by holtek-gcc v3.19, Wed Sep 06 23:59:07 2023
  35  0000              ; Rebuild 718
  35  0000              ; end of file


        0 Errors, 0