"File: LCD.c         Assembler  Version HGASM0202      Page 1


   1  0000              ; Generated by holtek-gcc v3.19, Wed Sep 06 23:59:07 2023
   2  0000              ; 
   3  0000              ; Configuration:
   4  0000              ;       without long instruction
   5  0000              ;       Single ROM, Multi-RAM
   6  0000              ;       bits_per_rom_unit:16
   7  0000              ;       with mp1
   8  0000              ;       with tbhp, address(0x9)
   9  0000              ;          Use tabrd-const
  10  0000              ;       
  11  0000              ;       
  12  0000              ;       
  13  0000              ; use 'tabrdc' instead of 'tabrd'
  14  0000              ;       
  15  0000              
  16  0000              #pragma translator "holtek-gcc 4.6.4" "3.19" "build 20130711"
  17  0000              ; Rebuild 718
  18  0000              
  19  0000              ir equ [2]
  20  0000              mp equ [3]
  21  0000              sbp equ [1]
  22  0000              acc equ [5]
  23  0000              bp equ [4]
  24  0000              tblp equ [7]
  25  0000              tbhp equ [9]
  26  0000              status equ [10]
  27  0000              c equ [10].0
  28  0000              ac equ [10].1
  29  0000              z equ [10].2
  30  0000              ov equ [10].3
  31  0000              intc equ [11]
  32  0000              
  33  0000              extern ra:byte
  34  0000              extern rb:byte
  35  0000              extern rc:byte
  36  0000              extern rd:byte
  37  0000              extern re:byte
  38  0000              extern rf:byte
  39  0000              extern rg:byte
  40  0000              extern rh:byte
  41  0000              extern _Crom2Prom:near
  42  0000              extern _Crom2PromNext:near
  43  0000              
  44  0000              RAMBANK 0 @HCCINIT, @HCCINIT0
  45  0000              
  46  0000              RAMBANK 0 @BITDATASEC, @BITDATASEC1
  47  0000              @HCCINIT	.section 'data'
  48  0000              @HCCINIT0	.section 'data'
  49  0000              @BITDATASEC	 .section 'data'
  50  0000              @BITDATASEC1	 .section 'data'
  51  0000              
  52  0000              #pragma debug scope 1 1
  53  0000              	extern __DELAY3:near
  54  0000              	extern __DELAYX3:near
  55  0000              	extern __DELAYX6:near
  56  0000              	extern __DELAYY5:near
  57  0000              	extern __DELAYY3:near
  58  0000              	extern _builtin_holtek_delay_2:byte
  59  0000              public __delay_us
"File: LCD.ASM       Assembler  Version HGASM0202      Page 2

  60  0000              #pragma debug scope 2 1

   6  0000              #line 6 "C:\Users\mediv\Nhap\demo\LCD.c"
   6  0000              __delay_us .section 'code'
   6  0000              __delay_us proc
   6  0000              public __delay_us_2
   6  0000  0004[           local __delay_us_2 db 4 dup(?)	; 4,0
            00
            ]
   6  0004              #pragma debug variable 14 2 __delay_us_2+0 "time"
   8  0004              #line 8 "C:\Users\mediv\Nhap\demo\LCD.c"
   8  0000  2800     R  	jmp _L2
   8  0001              _L3:
  10  0001              #line 10 "C:\Users\mediv\Nhap\demo\LCD.c"
  10  0001              ;# 10 "C:\Users\mediv\Nhap\demo\LCD.c" 1
  10  0001              	IF 2>263690
  10  0001              ;# 10 "C:\Users\mediv\Nhap\demo\LCD.c" 1
  10  0001              	ERRMESSAGE 'the value 2of the argument exceeds the maxinum 263690'
  10  0001              	ENDIF
  10  0001              ;# 10 "C:\Users\mediv\Nhap\demo\LCD.c" 1
  10  0001              	IF 2<0
  10  0001              ;# 10 "C:\Users\mediv\Nhap\demo\LCD.c" 1
  10  0001              	ERRMESSAGE 'the value 2 of the argument exceeds the mininum 0'
  10  0001              	ENDIF
  10  0001              ;# 10 "C:\Users\mediv\Nhap\demo\LCD.c" 1
  10  0001              	IF 2==0
  10  0001              ;# 10 "C:\Users\mediv\Nhap\demo\LCD.c" 1
  10  0001              	JMP $
  10  0001              	ENDIF
  10  0001              ;# 10 "C:\Users\mediv\Nhap\demo\LCD.c" 1
  10  0001              	IF 2==1
  10  0001              ;# 10 "C:\Users\mediv\Nhap\demo\LCD.c" 1
  10  0001              	NOP
  10  0001              	ENDIF
  10  0001              ;# 10 "C:\Users\mediv\Nhap\demo\LCD.c" 1
  10  0001              	IF 2==2
  10  0001              ;# 10 "C:\Users\mediv\Nhap\demo\LCD.c" 1
  10  0001  0000        	NOP
  10  0002              ;# 10 "C:\Users\mediv\Nhap\demo\LCD.c" 1
  10  0002  0000        	NOP
  10  0003              	ENDIF
  10  0003              ;# 10 "C:\Users\mediv\Nhap\demo\LCD.c" 1
  10  0003              	IF 2==3
  10  0003              ;# 10 "C:\Users\mediv\Nhap\demo\LCD.c" 1
  10  0003              	NOP
  10  0003              ;# 10 "C:\Users\mediv\Nhap\demo\LCD.c" 1
  10  0003              	NOP
  10  0003              ;# 10 "C:\Users\mediv\Nhap\demo\LCD.c" 1
  10  0003              	NOP
  10  0003              	ENDIF
  10  0003              ;# 10 "C:\Users\mediv\Nhap\demo\LCD.c" 1
  10  0003              	IF (2<8) AND (2>3)
  10  0003              ;# 10 "C:\Users\mediv\Nhap\demo\LCD.c" 1
  10  0003              	CALL __DELAY3 + 7 -2
  10  0003              	ENDIF
  10  0003              ;# 10 "C:\Users\mediv\Nhap\demo\LCD.c" 1
  10  0003              	IF (2< 0404h) AND (2>7)
  10  0003              ;# 10 "C:\Users\mediv\Nhap\demo\LCD.c" 1
  10  0003              	MOV A,2/4-1
  10  0003              ;# 10 "C:\Users\mediv\Nhap\demo\LCD.c" 1
"File: LCD.c         Assembler  Version HGASM0202      Page 3

  10  0003              	CALL __DELAYX3 + 3 -(2 MOD 4)
  10  0003              	ENDIF
  10  0003              ;# 10 "C:\Users\mediv\Nhap\demo\LCD.c" 1
  10  0003              	IF (2< 0x40B) AND (2> 0403h)
  10  0003              ;# 10 "C:\Users\mediv\Nhap\demo\LCD.c" 1
  10  0003              	MOV A,0 
  10  0003              ;# 10 "C:\Users\mediv\Nhap\demo\LCD.c" 1
  10  0003              	CALL __DELAYX6 + 0x40a -2
  10  0003              	ENDIF
  10  0003              ;# 10 "C:\Users\mediv\Nhap\demo\LCD.c" 1
  10  0003              	IF (2 >= 0x40b) AND ((((2-9)%0402h)/4+1)>256)
  10  0003              ;# 10 "C:\Users\mediv\Nhap\demo\LCD.c" 1
  10  0003              	MOV A,(2-9)/0402h
  10  0003              ;# 10 "C:\Users\mediv\Nhap\demo\LCD.c" 1
  10  0003              	MOV _builtin_holtek_delay_2,A
  10  0003              ;# 10 "C:\Users\mediv\Nhap\demo\LCD.c" 1
  10  0003              	MOV A,0
  10  0003              ;# 10 "C:\Users\mediv\Nhap\demo\LCD.c" 1
  10  0003              	CALL __DELAYY5 +5- (((2-9)%0402h)%6)
  10  0003              	ENDIF
  10  0003              ;# 10 "C:\Users\mediv\Nhap\demo\LCD.c" 1
  10  0003              	IF (2 >= 0x40b) AND ((((2-9)%0402h)/4+1)<=256)
  10  0003              ;# 10 "C:\Users\mediv\Nhap\demo\LCD.c" 1
  10  0003              	MOV A,(2-9)/0402h
  10  0003              ;# 10 "C:\Users\mediv\Nhap\demo\LCD.c" 1
  10  0003              	MOV _builtin_holtek_delay_2,A
  10  0003              ;# 10 "C:\Users\mediv\Nhap\demo\LCD.c" 1
  10  0003              	MOV A,((2-9)%0402h)/4+1
  10  0003              ;# 10 "C:\Users\mediv\Nhap\demo\LCD.c" 1
  10  0003              	CALL __DELAYY3 +3-(((2-9)%0402h)%4)
  10  0003              	ENDIF
   8  0003              #line 8 "C:\Users\mediv\Nhap\demo\LCD.c"
   8  0003  0FFF        	mov a,255
   8  0004  0380     R  	addm a,__delay_us_2[0]
   8  0005  1380     R  	adcm a,__delay_us_2[1]
   8  0006  1380     R  	adcm a,__delay_us_2[2]
   8  0007  1380     R  	adcm a,__delay_us_2[3]
   8  0008              _L2:
   8  0008  0700     R  	mov a,__delay_us_2[0]
   8  0009  0500     R  	or a,__delay_us_2[1]
   8  000A  0500     R  	or a,__delay_us_2[2]
   8  000B  0500     R  	or a,__delay_us_2[3]
   8  000C  390A        	snz z
   8  000D  2800     R  	jmp _L3
   8  000E  0003        	ret
   8  000F              __delay_us endp
   8  000F              #line 8 "C:\Users\mediv\Nhap\demo\LCD.c"
   8  000F              #pragma debug scope 1 1
   8  000F              public __delay_ms
   8  000F              #pragma debug scope 3 1
  18  000F              #line 18 "C:\Users\mediv\Nhap\demo\LCD.c"
  18  0000              __delay_ms .section 'code'
  18  0000              __delay_ms proc
  18  0000              public __delay_ms_2
  18  0000  0004[           local __delay_ms_2 db 4 dup(?)	; 4,0
            00
            ]
  18  0004              #pragma debug variable 14 3 __delay_ms_2+0 "time"
  19  0004              #line 19 "C:\Users\mediv\Nhap\demo\LCD.c"
  19  0000  1F00     E  	clr rb
"File: LCD.c         Assembler  Version HGASM0202      Page 4

  19  0001  1F00     E  	clr rc
  19  0002  2800     R  	jmp _L6
  19  0003              _L7:
  19  0003              #line 19 "C:\Users\mediv\Nhap\demo\LCD.c"
  19  0003              ;# 19 "C:\Users\mediv\Nhap\demo\LCD.c" 1
  19  0003              	IF 2000>263690
  19  0003              ;# 19 "C:\Users\mediv\Nhap\demo\LCD.c" 1
  19  0003              	ERRMESSAGE 'the value 2000of the argument exceeds the maxinum 263690'
  19  0003              	ENDIF
  19  0003              ;# 19 "C:\Users\mediv\Nhap\demo\LCD.c" 1
  19  0003              	IF 2000<0
  19  0003              ;# 19 "C:\Users\mediv\Nhap\demo\LCD.c" 1
  19  0003              	ERRMESSAGE 'the value 2000 of the argument exceeds the mininum 0'
  19  0003              	ENDIF
  19  0003              ;# 19 "C:\Users\mediv\Nhap\demo\LCD.c" 1
  19  0003              	IF 2000==0
  19  0003              ;# 19 "C:\Users\mediv\Nhap\demo\LCD.c" 1
  19  0003              	JMP $
  19  0003              	ENDIF
  19  0003              ;# 19 "C:\Users\mediv\Nhap\demo\LCD.c" 1
  19  0003              	IF 2000==1
  19  0003              ;# 19 "C:\Users\mediv\Nhap\demo\LCD.c" 1
  19  0003              	NOP
  19  0003              	ENDIF
  19  0003              ;# 19 "C:\Users\mediv\Nhap\demo\LCD.c" 1
  19  0003              	IF 2000==2
  19  0003              ;# 19 "C:\Users\mediv\Nhap\demo\LCD.c" 1
  19  0003              	NOP
  19  0003              ;# 19 "C:\Users\mediv\Nhap\demo\LCD.c" 1
  19  0003              	NOP
  19  0003              	ENDIF
  19  0003              ;# 19 "C:\Users\mediv\Nhap\demo\LCD.c" 1
  19  0003              	IF 2000==3
  19  0003              ;# 19 "C:\Users\mediv\Nhap\demo\LCD.c" 1
  19  0003              	NOP
  19  0003              ;# 19 "C:\Users\mediv\Nhap\demo\LCD.c" 1
  19  0003              	NOP
  19  0003              ;# 19 "C:\Users\mediv\Nhap\demo\LCD.c" 1
  19  0003              	NOP
  19  0003              	ENDIF
  19  0003              ;# 19 "C:\Users\mediv\Nhap\demo\LCD.c" 1
  19  0003              	IF (2000<8) AND (2000>3)
  19  0003              ;# 19 "C:\Users\mediv\Nhap\demo\LCD.c" 1
  19  0003              	CALL __DELAY3 + 7 -2000
  19  0003              	ENDIF
  19  0003              ;# 19 "C:\Users\mediv\Nhap\demo\LCD.c" 1
  19  0003              	IF (2000< 0404h) AND (2000>7)
  19  0003              ;# 19 "C:\Users\mediv\Nhap\demo\LCD.c" 1
  19  0003              	MOV A,2000/4-1
  19  0003              ;# 19 "C:\Users\mediv\Nhap\demo\LCD.c" 1
  19  0003              	CALL __DELAYX3 + 3 -(2000 MOD 4)
  19  0003              	ENDIF
  19  0003              ;# 19 "C:\Users\mediv\Nhap\demo\LCD.c" 1
  19  0003              	IF (2000< 0x40B) AND (2000> 0403h)
  19  0003              ;# 19 "C:\Users\mediv\Nhap\demo\LCD.c" 1
  19  0003              	MOV A,0 
  19  0003              ;# 19 "C:\Users\mediv\Nhap\demo\LCD.c" 1
  19  0003              	CALL __DELAYX6 + 0x40a -2000
  19  0003              	ENDIF
  19  0003              ;# 19 "C:\Users\mediv\Nhap\demo\LCD.c" 1
"File: LCD.c         Assembler  Version HGASM0202      Page 5

  19  0003              	IF (2000 >= 0x40b) AND ((((2000-9)%0402h)/4+1)>256)
  19  0003              ;# 19 "C:\Users\mediv\Nhap\demo\LCD.c" 1
  19  0003              	MOV A,(2000-9)/0402h
  19  0003              ;# 19 "C:\Users\mediv\Nhap\demo\LCD.c" 1
  19  0003              	MOV _builtin_holtek_delay_2,A
  19  0003              ;# 19 "C:\Users\mediv\Nhap\demo\LCD.c" 1
  19  0003              	MOV A,0
  19  0003              ;# 19 "C:\Users\mediv\Nhap\demo\LCD.c" 1
  19  0003              	CALL __DELAYY5 +5- (((2000-9)%0402h)%6)
  19  0003              	ENDIF
  19  0003              ;# 19 "C:\Users\mediv\Nhap\demo\LCD.c" 1
  19  0003              	IF (2000 >= 0x40b) AND ((((2000-9)%0402h)/4+1)<=256)
  19  0003              ;# 19 "C:\Users\mediv\Nhap\demo\LCD.c" 1
  19  0003  0F01        	MOV A,(2000-9)/0402h
  19  0004              ;# 19 "C:\Users\mediv\Nhap\demo\LCD.c" 1
  19  0004  0080     E  	MOV _builtin_holtek_delay_2,A
  19  0005              ;# 19 "C:\Users\mediv\Nhap\demo\LCD.c" 1
  19  0005  0FF2        	MOV A,((2000-9)%0402h)/4+1
  19  0006              ;# 19 "C:\Users\mediv\Nhap\demo\LCD.c" 1
  19  0006  2000     E  	CALL __DELAYY3 +3-(((2000-9)%0402h)%4)
  19  0007              	ENDIF
  19  0007  1480     E  	inc rb
  19  0008  3D0A        	sz z
  19  0009  1480     E  	inc rc
  19  000A              _L6:
  19  000A  0700     E  	mov a,rb
  19  000B  0200     R  	sub a,__delay_ms_2[0]
  19  000C  0700     E  	mov a,rc
  19  000D  1200     R  	sbc a,__delay_ms_2[1]
  19  000E  1F05        	clr acc
  19  000F  1200     R  	sbc a,__delay_ms_2[2]
  19  0010  1F05        	clr acc
  19  0011  1200     R  	sbc a,__delay_ms_2[3]
  19  0012  380A        	snz c
  19  0013  2800     R  	jmp _L7
  19  0014  0003        	ret
  19  0015              __delay_ms endp
  19  0015              #line 19 "C:\Users\mediv\Nhap\demo\LCD.c"
  19  0015              #pragma debug scope 1 1
  19  0015              ___pac equ [21]
  19  0015              ___pb equ [37]
  19  0015              ___pa equ [20]
  19  0015              public _Check_ACK
  19  0015              #pragma debug scope 4 1
  28  0015              #line 28 "C:\Users\mediv\Nhap\demo\LCD.c"
  28  0000              _Check_ACK .section 'code'
  28  0000              _Check_ACK proc
  28  0000  3195        	set [21].3
  29  0001              #line 29 "C:\Users\mediv\Nhap\demo\LCD.c"
  29  0001  3325        	set [37].6
  29  0002              _L10:
  30  0002              #line 30 "C:\Users\mediv\Nhap\demo\LCD.c"
  30  0002  3D94        	sz [20].3
  30  0003  2800     R  	jmp _L10
  31  0004              #line 31 "C:\Users\mediv\Nhap\demo\LCD.c"
  31  0004  3725        	clr [37].6
  31  0005  0003        	ret
  31  0006              _Check_ACK endp
  31  0006              #line 31 "C:\Users\mediv\Nhap\demo\LCD.c"
  31  0006              #pragma debug scope 1 1
"File: LCD.c         Assembler  Version HGASM0202      Page 6

  31  0006              public _lcdsend
  31  0006              #pragma debug scope 5 1
  34  0006              #line 34 "C:\Users\mediv\Nhap\demo\LCD.c"
  34  0000              _lcdsend .section 'code'
  34  0000              _lcdsend proc
  34  0000              public _lcdsend_2
  34  0000  0004[           local _lcdsend_2 db 4 dup(?)	; 1,3
            00
            ]
  34  0000  0080     R  	mov _lcdsend_2[3],a
  34  0001              #pragma debug variable 8 5 _lcdsend_2+3 "fgCD"
  34  0001              #pragma debug variable 8 5 _lcdsend_2+0 "CD"
  34  0001              #pragma debug variable 8 5 _lcdsend_2+2 "tmp"
  34  0001              #pragma debug variable 8 5 _lcdsend_2+1 "i"
  35  0001              #line 35 "C:\Users\mediv\Nhap\demo\LCD.c"
  35  0001  0F01        	mov a,1
  35  0002  0080     R  	mov _lcdsend_2[1],a
  36  0003              #line 36 "C:\Users\mediv\Nhap\demo\LCD.c"
  36  0003  2000     E  	call _I2C_Start
  37  0004              #line 37 "C:\Users\mediv\Nhap\demo\LCD.c"
  37  0004  0F7E        	mov a,126
  37  0005  2000     E  	call _Wr_Byte
  37  0006  2000     R  	call _Check_ACK
  38  0007              #line 38 "C:\Users\mediv\Nhap\demo\LCD.c"
  38  0007  1080     R  	sz _lcdsend_2[3]
  38  0008  2800     R  	jmp _LI1
  38  0009  2800     R  	jmp _L17
  38  000A              _LI1:
  38  000A              #line 38 "C:\Users\mediv\Nhap\demo\LCD.c"
  38  000A  0F09        	mov a,9
  38  000B  0080     E  	mov ra,a
  38  000C  2800     R  	jmp _L12
  38  000D              _L17:
  38  000D  0F08        	mov a,8
  38  000E  0080     E  	mov ra,a
  38  000F              _L12:
  38  000F  0700     E  	mov a,ra
  38  0010  0080     R  	mov _lcdsend_2[2],a
  39  0011              #line 39 "C:\Users\mediv\Nhap\demo\LCD.c"
  39  0011  0700     R  	mov a,_lcdsend_2[0]
  39  0012  0EF0        	and a,240
  39  0013  0080     E  	mov ra,a
  39  0014  0700     E  	mov a,ra
  39  0015  0580     R  	orm a,_lcdsend_2[2]
  40  0016              #line 40 "C:\Users\mediv\Nhap\demo\LCD.c"
  40  0016  0700     R  	mov a,_lcdsend_2[2]
  40  0017  0E31        	and a,49
  40  0018  0080     E  	mov ra,a
  40  0019  0700     E  	mov a,ra
  40  001A  0A20        	sub a,32
  40  001B  390A        	snz z
  40  001C  2800     R  	jmp _L13
  40  001D  0F02        	mov a,2
  40  001E  0080     R  	mov _lcdsend_2[1],a
  40  001F  2800     R  	jmp _L15
  40  0020              _L13:
  40  0020  0F01        	mov a,1
  40  0021  0080     R  	mov _lcdsend_2[1],a
  40  0022              _L15:
  41  0022              #line 41 "C:\Users\mediv\Nhap\demo\LCD.c"
"File: LCD.c         Assembler  Version HGASM0202      Page 7

  41  0022  0700     R  	mov a,_lcdsend_2[1]
  41  0023  0080     E  	mov ra,a
  41  0024  1500     E  	deca ra
  41  0025  0080     R  	mov _lcdsend_2[1],a
  41  0026  1080     E  	sz ra
  41  0027  2800     R  	jmp _LI2
  41  0028  2800     R  	jmp _L18
  41  0029              _LI2:
  42  0029              #line 42 "C:\Users\mediv\Nhap\demo\LCD.c"
  42  0029  0700     R  	mov a,_lcdsend_2[2]
  42  002A  0080     E  	mov ra,a
  42  002B  0700     E  	mov a,ra
  42  002C  2000     E  	call _Wr_Byte
  42  002D  2000     R  	call _Check_ACK
  43  002E              #line 43 "C:\Users\mediv\Nhap\demo\LCD.c"
  43  002E  3000     R  	set _lcdsend_2[2].2
  44  002F              #line 44 "C:\Users\mediv\Nhap\demo\LCD.c"
  44  002F  0700     R  	mov a,_lcdsend_2[2]
  44  0030  0080     E  	mov ra,a
  44  0031  0700     E  	mov a,ra
  44  0032  2000     E  	call _Wr_Byte
  44  0033  2000     R  	call _Check_ACK
  45  0034              #line 45 "C:\Users\mediv\Nhap\demo\LCD.c"
  45  0034  3400     R  	clr _lcdsend_2[2].2
  46  0035              #line 46 "C:\Users\mediv\Nhap\demo\LCD.c"
  46  0035  0700     R  	mov a,_lcdsend_2[2]
  46  0036  0080     E  	mov ra,a
  46  0037  0700     E  	mov a,ra
  46  0038  2000     E  	call _Wr_Byte
  46  0039  2000     R  	call _Check_ACK
  46  003A  2800     R  	jmp _L15
  46  003B              _L18:
  48  003B              #line 48 "C:\Users\mediv\Nhap\demo\LCD.c"
  48  003B  0F0F        	mov a,15
  48  003C  0680     R  	andm a,_lcdsend_2[2]
  49  003D              #line 49 "C:\Users\mediv\Nhap\demo\LCD.c"
  49  003D  0700     R  	mov a,_lcdsend_2[0]
  49  003E  0080     E  	mov rb,a
  49  003F  1F00     E  	clr rc
  49  0040  0F04        	mov a,4
  49  0041              _LI3:
  49  0041  340A        	clr c
  49  0042  1A80     E  	rlc rb
  49  0043  1A80     E  	rlc rc
  49  0044  1785        	sdz acc
  49  0045  2800     R  	jmp _LI3
  49  0046  0700     E  	mov a,rb
  49  0047  0580     R  	orm a,_lcdsend_2[2]
  50  0048              #line 50 "C:\Users\mediv\Nhap\demo\LCD.c"
  50  0048  0700     R  	mov a,_lcdsend_2[2]
  50  0049  0080     E  	mov ra,a
  50  004A  0700     E  	mov a,ra
  50  004B  2000     E  	call _Wr_Byte
  50  004C  2000     R  	call _Check_ACK
  51  004D              #line 51 "C:\Users\mediv\Nhap\demo\LCD.c"
  51  004D  3000     R  	set _lcdsend_2[2].2
  52  004E              #line 52 "C:\Users\mediv\Nhap\demo\LCD.c"
  52  004E  0700     R  	mov a,_lcdsend_2[2]
  52  004F  0080     E  	mov ra,a
  52  0050  0700     E  	mov a,ra
"File: LCD.c         Assembler  Version HGASM0202      Page 8

  52  0051  2000     E  	call _Wr_Byte
  52  0052  2000     R  	call _Check_ACK
  53  0053              #line 53 "C:\Users\mediv\Nhap\demo\LCD.c"
  53  0053  3400     R  	clr _lcdsend_2[2].2
  54  0054              #line 54 "C:\Users\mediv\Nhap\demo\LCD.c"
  54  0054  0700     R  	mov a,_lcdsend_2[2]
  54  0055  0080     E  	mov ra,a
  54  0056  0700     E  	mov a,ra
  54  0057  2000     E  	call _Wr_Byte
  54  0058  2000     R  	call _Check_ACK
  55  0059              #line 55 "C:\Users\mediv\Nhap\demo\LCD.c"
  55  0059  2000     E  	call _I2C_Stop
  55  005A  0003        	ret
  55  005B              _lcdsend endp
  55  005B              #line 55 "C:\Users\mediv\Nhap\demo\LCD.c"
  55  005B              #pragma debug scope 1 1
  55  005B              public _lcdinit
  55  005B              #pragma debug scope 6 1
  58  005B              #line 58 "C:\Users\mediv\Nhap\demo\LCD.c"
  58  0000              _lcdinit .section 'code'
  58  0000              _lcdinit proc
  59  0000              #line 59 "C:\Users\mediv\Nhap\demo\LCD.c"
  59  0000  0F28        	mov a,40
  59  0001  0080     R  	mov __delay_ms_2[0],a
  59  0002  1F00     R  	clr __delay_ms_2[1]
  59  0003  1F00     R  	clr __delay_ms_2[2]
  59  0004  1F00     R  	clr __delay_ms_2[3]
  59  0005  2000     R  	call __delay_ms
  60  0006              #line 60 "C:\Users\mediv\Nhap\demo\LCD.c"
  60  0006  2000     E  	call _I2C_Start
  60  0007  2000     E  	call _I2C_Stop
  61  0008              #line 61 "C:\Users\mediv\Nhap\demo\LCD.c"
  61  0008  0F28        	mov a,40
  61  0009  0080     R  	mov _lcdsend_2[0],a
  61  000A  0F00        	mov a,0
  61  000B  2000     R  	call _lcdsend
  62  000C              #line 62 "C:\Users\mediv\Nhap\demo\LCD.c"
  62  000C  0F0F        	mov a,15
  62  000D  0080     R  	mov _lcdsend_2[0],a
  62  000E  0F00        	mov a,0
  62  000F  2000     R  	call _lcdsend
  63  0010              #line 63 "C:\Users\mediv\Nhap\demo\LCD.c"
  63  0010  0F06        	mov a,6
  63  0011  0080     R  	mov _lcdsend_2[0],a
  63  0012  0F00        	mov a,0
  63  0013  2000     R  	call _lcdsend
  64  0014              #line 64 "C:\Users\mediv\Nhap\demo\LCD.c"
  64  0014  0F01        	mov a,1
  64  0015  0080     R  	mov _lcdsend_2[0],a
  64  0016  0F00        	mov a,0
  64  0017  2000     R  	call _lcdsend
  64  0018  0F02        	mov a,2
  64  0019  0080     R  	mov __delay_ms_2[0],a
  64  001A  1F00     R  	clr __delay_ms_2[1]
  64  001B  1F00     R  	clr __delay_ms_2[2]
  64  001C  1F00     R  	clr __delay_ms_2[3]
  64  001D  2000     R  	call __delay_ms
  64  001E  0003        	ret
  64  001F              _lcdinit endp
  64  001F              #line 64 "C:\Users\mediv\Nhap\demo\LCD.c"
"File: LCD.c         Assembler  Version HGASM0202      Page 9

  64  001F              #pragma debug scope 1 1
  64  001F              public _lcdcursor
  64  001F              #pragma debug scope 7 1
  67  001F              #line 67 "C:\Users\mediv\Nhap\demo\LCD.c"
  67  0000              _lcdcursor .section 'code'
  67  0000              _lcdcursor proc
  67  0000              public _lcdcursor_2
  67  0000  0004[           local _lcdcursor_2 db 4 dup(?)	; 4,0
            00
            ]
  67  0004              #pragma debug variable 11 7 _lcdcursor_2+0 "row"
  67  0004              #pragma debug variable 11 7 _lcdcursor_2+2 "col"
  69  0004              #line 69 "C:\Users\mediv\Nhap\demo\LCD.c"
  69  0000  0700     R  	mov a,_lcdcursor_2[0]
  69  0001  0500     R  	or a,_lcdcursor_2[1]
  69  0002  3D0A        	sz z
  69  0003  2800     R  	jmp _L22
  69  0004              #line 69 "C:\Users\mediv\Nhap\demo\LCD.c"
  69  0004  0700     R  	mov a,_lcdcursor_2[0]
  69  0005  0C01        	xor a,1
  69  0006  0500     R  	or a,_lcdcursor_2[1]
  69  0007  390A        	snz z
  69  0008  2800     R  	jmp _L25
  74  0009              #line 74 "C:\Users\mediv\Nhap\demo\LCD.c"
  74  0009  0700     R  	mov a,_lcdcursor_2[2]
  74  000A  0BC0        	add a,192
  74  000B  0080     E  	mov ra,a
  75  000C              #line 75 "C:\Users\mediv\Nhap\demo\LCD.c"
  75  000C  2800     R  	jmp _L21
  75  000D              _L22:
  71  000D              #line 71 "C:\Users\mediv\Nhap\demo\LCD.c"
  71  000D  0700     R  	mov a,_lcdcursor_2[2]
  71  000E  0B80        	add a,128
  71  000F  0080     E  	mov ra,a
  72  0010              #line 72 "C:\Users\mediv\Nhap\demo\LCD.c"
  72  0010  2800     R  	jmp _L21
  72  0011              _L25:
  68  0011              #line 68 "C:\Users\mediv\Nhap\demo\LCD.c"
  68  0011  1F00     E  	clr ra
  68  0012              _L21:
  77  0012              #line 77 "C:\Users\mediv\Nhap\demo\LCD.c"
  77  0012  0700     E  	mov a,ra
  77  0013  0080     R  	mov _lcdsend_2[0],a
  77  0014  0F00        	mov a,0
  77  0015  2000     R  	call _lcdsend
  77  0016  0003        	ret
  77  0017              _lcdcursor endp
  77  0017              #line 77 "C:\Users\mediv\Nhap\demo\LCD.c"
  77  0017              #pragma debug scope 1 1
  77  0017              public _lcdprint
  77  0017              #pragma debug scope 8 1
  80  0017              #line 80 "C:\Users\mediv\Nhap\demo\LCD.c"
  80  0000              _lcdprint .section 'code'
  80  0000              _lcdprint proc
  80  0000              public _lcdprint_2
  80  0000  0004[           local _lcdprint_2 db 4 dup(?)	; 2,2
            00
            ]
  80  0004              #pragma debug pointer 42 7 8
  80  0004              #pragma debug pointer 42 7 8
"File: LCD.c         Assembler  Version HGASM0202      Page 10

  80  0004              #pragma debug variable 42 8 _lcdprint_2+0 "ptr"
  80  0004              #pragma debug variable 11 8 _lcdprint_2+2 "i"
  81  0004              #line 81 "C:\Users\mediv\Nhap\demo\LCD.c"
  81  0000  1F00     R  	clr _lcdprint_2[2]
  81  0001  1F00     R  	clr _lcdprint_2[3]
  82  0002              #line 82 "C:\Users\mediv\Nhap\demo\LCD.c"
  82  0002  2800     R  	jmp _L27
  82  0003              _L28:
  83  0003              #line 83 "C:\Users\mediv\Nhap\demo\LCD.c"
  83  0003  0700     E  	mov a,ra
  83  0004  0080     R  	mov _lcdsend_2[0],a
  83  0005  0F01        	mov a,1
  83  0006  2000     R  	call _lcdsend
  84  0007              #line 84 "C:\Users\mediv\Nhap\demo\LCD.c"
  84  0007  1480     R  	inc _lcdprint_2[2]
  84  0008  3D0A        	sz z
  84  0009  1480     R  	inc _lcdprint_2[3]
  85  000A              #line 85 "C:\Users\mediv\Nhap\demo\LCD.c"
  85  000A  0F28        	mov a,40
  85  000B  0080     R  	mov __delay_us_2[0],a
  85  000C  1F00     R  	clr __delay_us_2[1]
  85  000D  1F00     R  	clr __delay_us_2[2]
  85  000E  1F00     R  	clr __delay_us_2[3]
  85  000F  2000     R  	call __delay_us
  85  0010              _L27:
  82  0010              #line 82 "C:\Users\mediv\Nhap\demo\LCD.c"
  82  0010  0700     R  	mov a,_lcdprint_2[2]
  82  0011  0300     R  	add a,_lcdprint_2[0]
  82  0012  0083        	mov mp,a
  82  0013  0700     R  	mov a,_lcdprint_2[3]
  82  0014  1300     R  	adc a,_lcdprint_2[1]
  82  0015  0081        	mov sbp,a
  82  0016  2000     E  	call _Crom2Prom
  82  0017  0080     E  	mov ra,a
  82  0018  1080     E  	sz ra
  82  0019  2800     R  	jmp _L28
  82  001A  0003        	ret
  82  001B              _lcdprint endp
  82  001B              #line 82 "C:\Users\mediv\Nhap\demo\LCD.c"
  82  001B              #pragma debug scope 1 1
  82  001B              #pragma debug struct_end
  82  001B              #pragma debug struct_end
  82  001B              #pragma debug union_end
  82  001B              #pragma debug union_end
  82  001B              #pragma debug variable 44 1 ___pa "__pa" 1
  82  001B              #pragma debug struct_end
  82  001B              #pragma debug struct_end
  82  001B              #pragma debug union_end
  82  001B              #pragma debug union_end
  82  001B              #pragma debug variable 46 1 ___pac "__pac" 1
  82  001B              #pragma debug struct_end
  82  001B              #pragma debug struct_end
  82  001B              #pragma debug union_end
  82  001B              #pragma debug union_end
  82  001B              #pragma debug variable 48 1 ___pb "__pb" 1
  82  001B              extern _I2C_Start:near
  82  001B              extern _Wr_Byte:near
  82  001B              extern _I2C_Stop:near
  82  001B              
  82  001B              ; 
"File: LCD.c         Assembler  Version HGASM0202      Page 11

  82  001B              ; Generated by holtek-gcc v3.19, Wed Sep 06 23:59:07 2023
  82  001B              ; Rebuild 718
  82  001B              ; end of file


        0 Errors, 0