"File: mpu6050.c     Assembler  Version HGASM0202      Page 1


   1  0000              ; Generated by holtek-gcc v3.19, Wed Sep 06 23:59:07 2023
   2  0000              ; 
   3  0000              ; Configuration:
   4  0000              ;       without long instruction
   5  0000              ;       Single ROM, Multi-RAM
   6  0000              ;       bits_per_rom_unit:16
   7  0000              ;       with mp1
   8  0000              ;       with tbhp, address(0x9)
   9  0000              ;          Use tabrd-const
  10  0000              ;       
  11  0000              ;       
  12  0000              ;       
  13  0000              ; use 'tabrdc' instead of 'tabrd'
  14  0000              ;       
  15  0000              
  16  0000              #pragma translator "holtek-gcc 4.6.4" "3.19" "build 20130711"
  17  0000              ; Rebuild 718
  18  0000              
  19  0000              ir equ [2]
  20  0000              mp equ [3]
  21  0000              sbp equ [1]
  22  0000              acc equ [5]
  23  0000              bp equ [4]
  24  0000              tblp equ [7]
  25  0000              tbhp equ [9]
  26  0000              status equ [10]
  27  0000              c equ [10].0
  28  0000              ac equ [10].1
  29  0000              z equ [10].2
  30  0000              ov equ [10].3
  31  0000              intc equ [11]
  32  0000              
  33  0000              extern ra:byte
  34  0000              extern rb:byte
  35  0000              extern rc:byte
  36  0000              extern rd:byte
  37  0000              extern re:byte
  38  0000              extern rf:byte
  39  0000              extern rg:byte
  40  0000              extern rh:byte
  41  0000              extern _Crom2Prom:near
  42  0000              extern _Crom2PromNext:near
  43  0000              
  44  0000              RAMBANK 0 @HCCINIT, @HCCINIT0
  45  0000              
  46  0000              RAMBANK 0 @BITDATASEC, @BITDATASEC1
  47  0000              @HCCINIT	.section 'data'
  48  0000              @HCCINIT0	.section 'data'
  49  0000              @BITDATASEC	 .section 'data'
  50  0000              @BITDATASEC1	 .section 'data'
  51  0000              
  52  0000              #pragma debug scope 1 1
  53  0000              	extern __DELAY3:near
  54  0000              	extern __DELAYX3:near
  55  0000              	extern __DELAYX6:near
  56  0000              	extern __DELAYY5:near
  57  0000              	extern __DELAYY3:near
  58  0000              	extern _builtin_holtek_delay_2:byte
  59  0000              public _mpu_cmd
"File: mpu6050.ASM   Assembler  Version HGASM0202      Page 2

  60  0000              #pragma debug scope 2 1

  15  0000              #line 15 "C:\Users\mediv\Nhap\demo\mpu6050.c"
  15  0000              _mpu_cmd .section 'code'
  15  0000              _mpu_cmd proc
  15  0000              public _mpu_cmd_2
  15  0000  0002[           local _mpu_cmd_2 db 2 dup(?)	; 1,1
            00
            ]
  15  0000  0080     R  	mov _mpu_cmd_2[1],a
  15  0001              #pragma debug variable 8 2 _mpu_cmd_2+1 "RA"
  15  0001              #pragma debug variable 8 2 _mpu_cmd_2+0 "data"
  16  0001              #line 16 "C:\Users\mediv\Nhap\demo\mpu6050.c"
  16  0001  2000     E  	call _I2C_Start
  17  0002              #line 17 "C:\Users\mediv\Nhap\demo\mpu6050.c"
  17  0002  0FD0        	mov a,208
  17  0003  2000     E  	call _Wr_Byte
  17  0004  2000     E  	call _Check_ACK
  18  0005              #line 18 "C:\Users\mediv\Nhap\demo\mpu6050.c"
  18  0005  0700     R  	mov a,_mpu_cmd_2[1]
  18  0006  2000     E  	call _Wr_Byte
  18  0007  2000     E  	call _Check_ACK
  19  0008              #line 19 "C:\Users\mediv\Nhap\demo\mpu6050.c"
  19  0008  0700     R  	mov a,_mpu_cmd_2[0]
  19  0009  2000     E  	call _Wr_Byte
  19  000A  2000     E  	call _Check_ACK
  20  000B              #line 20 "C:\Users\mediv\Nhap\demo\mpu6050.c"
  20  000B  2000     E  	call _I2C_Stop
  21  000C              #line 21 "C:\Users\mediv\Nhap\demo\mpu6050.c"
  21  000C  0F0A        	mov a,10
  21  000D  0080     E  	mov __delay_ms_2[0],a
  21  000E  1F00     E  	clr __delay_ms_2[1]
  21  000F  1F00     E  	clr __delay_ms_2[2]
  21  0010  1F00     E  	clr __delay_ms_2[3]
  21  0011  2000     E  	call __delay_ms
  21  0012  0003        	ret
  21  0013              _mpu_cmd endp
  21  0013              #line 21 "C:\Users\mediv\Nhap\demo\mpu6050.c"
  21  0013              #pragma debug scope 1 1
  21  0013              public _mpu_init
  21  0013              #pragma debug scope 3 1
  24  0013              #line 24 "C:\Users\mediv\Nhap\demo\mpu6050.c"
  24  0000              _mpu_init .section 'code'
  24  0000              _mpu_init proc
  25  0000              #line 25 "C:\Users\mediv\Nhap\demo\mpu6050.c"
  25  0000  0F64        	mov a,100
  25  0001  0080     E  	mov __delay_ms_2[0],a
  25  0002  1F00     E  	clr __delay_ms_2[1]
  25  0003  1F00     E  	clr __delay_ms_2[2]
  25  0004  1F00     E  	clr __delay_ms_2[3]
  25  0005  2000     E  	call __delay_ms
  26  0006              #line 26 "C:\Users\mediv\Nhap\demo\mpu6050.c"
  26  0006  0F07        	mov a,7
  26  0007  0080     R  	mov _mpu_cmd_2[0],a
  26  0008  0F19        	mov a,25
  26  0009  2000     R  	call _mpu_cmd
  27  000A              #line 27 "C:\Users\mediv\Nhap\demo\mpu6050.c"
  27  000A  0F01        	mov a,1
  27  000B  0080     R  	mov _mpu_cmd_2[0],a
  27  000C  0F6B        	mov a,107
"File: mpu6050.c     Assembler  Version HGASM0202      Page 3

  27  000D  2000     R  	call _mpu_cmd
  28  000E              #line 28 "C:\Users\mediv\Nhap\demo\mpu6050.c"
  28  000E  1F00     R  	clr _mpu_cmd_2[0]
  28  000F  0F1A        	mov a,26
  28  0010  2000     R  	call _mpu_cmd
  29  0011              #line 29 "C:\Users\mediv\Nhap\demo\mpu6050.c"
  29  0011  1F00     R  	clr _mpu_cmd_2[0]
  29  0012  0F1C        	mov a,28
  29  0013  2000     R  	call _mpu_cmd
  30  0014              #line 30 "C:\Users\mediv\Nhap\demo\mpu6050.c"
  30  0014  0F18        	mov a,24
  30  0015  0080     R  	mov _mpu_cmd_2[0],a
  30  0016  0F1B        	mov a,27
  30  0017  2000     R  	call _mpu_cmd
  31  0018              #line 31 "C:\Users\mediv\Nhap\demo\mpu6050.c"
  31  0018  1F00     R  	clr _mpu_cmd_2[0]
  31  0019  0F38        	mov a,56
  31  001A  2000     R  	call _mpu_cmd
  32  001B              #line 32 "C:\Users\mediv\Nhap\demo\mpu6050.c"
  32  001B  0F0A        	mov a,10
  32  001C  0080     E  	mov __delay_ms_2[0],a
  32  001D  1F00     E  	clr __delay_ms_2[1]
  32  001E  1F00     E  	clr __delay_ms_2[2]
  32  001F  1F00     E  	clr __delay_ms_2[3]
  32  0020  2000     E  	call __delay_ms
  32  0021  0003        	ret
  32  0022              _mpu_init endp
  32  0022              #line 32 "C:\Users\mediv\Nhap\demo\mpu6050.c"
  32  0022              #pragma debug scope 1 1
  32  0022              public _mpu_read
  32  0022              #pragma debug scope 4 1
  35  0022              #line 35 "C:\Users\mediv\Nhap\demo\mpu6050.c"
  35  0000              _mpu_read .section 'code'
  35  0000              _mpu_read proc
  35  0000              public _mpu_read_2
  35  0000  0015[           local _mpu_read_2 db 21 dup(?)	; 21,0
            00
            ]
  35  0015              #pragma debug variable 28 4 _mpu_read_2+0 "AX"
  35  0015              #pragma debug variable 28 4 _mpu_read_2+3 "AY"
  35  0015              #pragma debug variable 28 4 _mpu_read_2+6 "AZ"
  35  0015              #pragma debug variable 28 4 _mpu_read_2+9 "t"
  35  0015              #pragma debug variable 28 4 _mpu_read_2+12 "GX"
  35  0015              #pragma debug variable 28 4 _mpu_read_2+15 "GY"
  35  0015              #pragma debug variable 28 4 _mpu_read_2+18 "GZ"
  38  0015              #line 38 "C:\Users\mediv\Nhap\demo\mpu6050.c"
  38  0000  2000     E  	call _I2C_Start
  39  0001              #line 39 "C:\Users\mediv\Nhap\demo\mpu6050.c"
  39  0001  0FD0        	mov a,208
  39  0002  2000     E  	call _Wr_Byte
  39  0003  2000     E  	call _Check_ACK
  40  0004              #line 40 "C:\Users\mediv\Nhap\demo\mpu6050.c"
  40  0004  0F3B        	mov a,59
  40  0005  2000     E  	call _Wr_Byte
  40  0006  2000     E  	call _Check_ACK
  41  0007              #line 41 "C:\Users\mediv\Nhap\demo\mpu6050.c"
  41  0007  2000     E  	call _I2C_Stop
  42  0008              #line 42 "C:\Users\mediv\Nhap\demo\mpu6050.c"
  42  0008  2000     E  	call _I2C_Start
  43  0009              #line 43 "C:\Users\mediv\Nhap\demo\mpu6050.c"
"File: mpu6050.c     Assembler  Version HGASM0202      Page 4

  43  0009  0FD1        	mov a,209
  43  000A  2000     E  	call _Wr_Byte
  43  000B  2000     E  	call _Check_ACK
  44  000C              #line 44 "C:\Users\mediv\Nhap\demo\mpu6050.c"
  44  000C  2000     E  	call _Rd_Byte
  44  000D  2000     E  	call _Rd_Byte
  45  000E              #line 45 "C:\Users\mediv\Nhap\demo\mpu6050.c"
  45  000E  2000     E  	call _Rd_Byte
  45  000F  2000     E  	call _Rd_Byte
  46  0010              #line 46 "C:\Users\mediv\Nhap\demo\mpu6050.c"
  46  0010  2000     E  	call _Rd_Byte
  46  0011  2000     E  	call _Rd_Byte
  47  0012              #line 47 "C:\Users\mediv\Nhap\demo\mpu6050.c"
  47  0012  2000     E  	call _Rd_Byte
  47  0013  2000     E  	call _Rd_Byte
  48  0014              #line 48 "C:\Users\mediv\Nhap\demo\mpu6050.c"
  48  0014  2000     E  	call _Rd_Byte
  48  0015  2000     E  	call _Rd_Byte
  49  0016              #line 49 "C:\Users\mediv\Nhap\demo\mpu6050.c"
  49  0016  2000     E  	call _Rd_Byte
  49  0017  2000     E  	call _Rd_Byte
  50  0018              #line 50 "C:\Users\mediv\Nhap\demo\mpu6050.c"
  50  0018  2000     E  	call _Rd_Byte
  50  0019  2000     E  	call _Rd_Byte
  51  001A              #line 51 "C:\Users\mediv\Nhap\demo\mpu6050.c"
  51  001A  2000     E  	call _I2C_Stop
  51  001B  0003        	ret
  51  001C              _mpu_read endp
  51  001C              #line 51 "C:\Users\mediv\Nhap\demo\mpu6050.c"
  51  001C              #pragma debug scope 1 1
  51  001C              public _read
  51  001C              #pragma debug scope 5 1
  62  001C              #line 62 "C:\Users\mediv\Nhap\demo\mpu6050.c"
  62  0000              _read .section 'code'
  62  0000              _read proc
  66  0000              #line 66 "C:\Users\mediv\Nhap\demo\mpu6050.c"
  66  0000  1F00     R  	clr _Rx_Buff[0]
  66  0001  1F00     R  	clr _Rx_Buff[1]
  66  0002  1F00     R  	clr _Rx_Buff[2]
  66  0003  1F00     R  	clr _Rx_Buff[3]
  69  0004              #line 69 "C:\Users\mediv\Nhap\demo\mpu6050.c"
  69  0004  0F04        	mov a,4
  69  0005  0080     E  	mov _I2C_Read_2[2],a
  69  0006  0F00     R  	mov a,low offset _Rx_Buff
  69  0007  0080     E  	mov _I2C_Read_2[0],a
  69  0008  0F00     R  	mov a,high offset _Rx_Buff
  69  0009  0080     E  	mov _I2C_Read_2[1],a
  69  000A  2000     E  	call _I2C_Read
  70  000B              #line 70 "C:\Users\mediv\Nhap\demo\mpu6050.c"
  70  000B              ;# 70 "C:\Users\mediv\Nhap\demo\mpu6050.c" 1
  70  000B  0001        	clr wdt
  71  000C              #line 71 "C:\Users\mediv\Nhap\demo\mpu6050.c"
  71  000C  0700     R  	mov a,_Rx_Buff[0]
  71  000D  0080     E  	mov rd,a
  71  000E  0700     R  	mov a,_Rx_Buff[1]
  71  000F  0080     E  	mov rc,a
  71  0010  0700     R  	mov a,_Rx_Buff[2]
  71  0011  0080     E  	mov rb,a
  71  0012  0700     E  	mov a,rc
  71  0013  0300     E  	add a,rd
"File: mpu6050.c     Assembler  Version HGASM0202      Page 5

  71  0014  0080     E  	mov ra,a
  71  0015  0700     E  	mov a,rb
  71  0016  0380     E  	addm a,ra
  71  0017  0700     E  	mov a,ra
  71  0018  0080     R  	mov _Rd_CheckSum[0],a
  72  0019              #line 72 "C:\Users\mediv\Nhap\demo\mpu6050.c"
  72  0019              ;# 72 "C:\Users\mediv\Nhap\demo\mpu6050.c" 1
  72  0019  0000        	nop
  74  001A              #line 74 "C:\Users\mediv\Nhap\demo\mpu6050.c"
  74  001A  0700     E  	mov a,ra
  74  001B  0200     R  	sub a,_Rx_Buff[3]
  74  001C  390A        	snz z
  74  001D  2800     R  	jmp _L5
  76  001E              #line 76 "C:\Users\mediv\Nhap\demo\mpu6050.c"
  76  001E  1F00     R  	clr _Rd_CheckSum[0]
  77  001F              #line 77 "C:\Users\mediv\Nhap\demo\mpu6050.c"
  77  001F  0700     E  	mov a,rd
  77  0020  0080     R  	mov _Rx_Data[0],a
  78  0021              #line 78 "C:\Users\mediv\Nhap\demo\mpu6050.c"
  78  0021  0700     E  	mov a,rc
  78  0022  0080     R  	mov _Rx_Data[1],a
  79  0023              #line 79 "C:\Users\mediv\Nhap\demo\mpu6050.c"
  79  0023  0700     E  	mov a,rb
  79  0024  0080     R  	mov _Rx_Data[2],a
  80  0025              #line 80 "C:\Users\mediv\Nhap\demo\mpu6050.c"
  80  0025  0700     E  	mov a,ra
  80  0026  0080     R  	mov _Rx_Data[3],a
  83  0027              #line 83 "C:\Users\mediv\Nhap\demo\mpu6050.c"
  83  0027  1F00     R  	clr _Rx_Buff[0]
  83  0028  1F00     R  	clr _Rx_Buff[1]
  83  0029  1F00     R  	clr _Rx_Buff[2]
  83  002A  1F00     R  	clr _Rx_Buff[3]
  85  002B              #line 85 "C:\Users\mediv\Nhap\demo\mpu6050.c"
  85  002B              ;# 85 "C:\Users\mediv\Nhap\demo\mpu6050.c" 1
  85  002B              	IF 1>263690
  85  002B              ;# 85 "C:\Users\mediv\Nhap\demo\mpu6050.c" 1
  85  002B              	ERRMESSAGE 'the value 1of the argument exceeds the maxinum 263690'
  85  002B              	ENDIF
  85  002B              ;# 85 "C:\Users\mediv\Nhap\demo\mpu6050.c" 1
  85  002B              	IF 1<0
  85  002B              ;# 85 "C:\Users\mediv\Nhap\demo\mpu6050.c" 1
  85  002B              	ERRMESSAGE 'the value 1 of the argument exceeds the mininum 0'
  85  002B              	ENDIF
  85  002B              ;# 85 "C:\Users\mediv\Nhap\demo\mpu6050.c" 1
  85  002B              	IF 1==0
  85  002B              ;# 85 "C:\Users\mediv\Nhap\demo\mpu6050.c" 1
  85  002B              	JMP $
  85  002B              	ENDIF
  85  002B              ;# 85 "C:\Users\mediv\Nhap\demo\mpu6050.c" 1
  85  002B              	IF 1==1
  85  002B              ;# 85 "C:\Users\mediv\Nhap\demo\mpu6050.c" 1
  85  002B  0000        	NOP
  85  002C              	ENDIF
  85  002C              ;# 85 "C:\Users\mediv\Nhap\demo\mpu6050.c" 1
  85  002C              	IF 1==2
  85  002C              ;# 85 "C:\Users\mediv\Nhap\demo\mpu6050.c" 1
  85  002C              	NOP
  85  002C              ;# 85 "C:\Users\mediv\Nhap\demo\mpu6050.c" 1
  85  002C              	NOP
  85  002C              	ENDIF
"File: mpu6050.c     Assembler  Version HGASM0202      Page 6

  85  002C              ;# 85 "C:\Users\mediv\Nhap\demo\mpu6050.c" 1
  85  002C              	IF 1==3
  85  002C              ;# 85 "C:\Users\mediv\Nhap\demo\mpu6050.c" 1
  85  002C              	NOP
  85  002C              ;# 85 "C:\Users\mediv\Nhap\demo\mpu6050.c" 1
  85  002C              	NOP
  85  002C              ;# 85 "C:\Users\mediv\Nhap\demo\mpu6050.c" 1
  85  002C              	NOP
  85  002C              	ENDIF
  85  002C              ;# 85 "C:\Users\mediv\Nhap\demo\mpu6050.c" 1
  85  002C              	IF (1<8) AND (1>3)
  85  002C              ;# 85 "C:\Users\mediv\Nhap\demo\mpu6050.c" 1
  85  002C              	CALL __DELAY3 + 7 -1
  85  002C              	ENDIF
  85  002C              ;# 85 "C:\Users\mediv\Nhap\demo\mpu6050.c" 1
  85  002C              	IF (1< 0404h) AND (1>7)
  85  002C              ;# 85 "C:\Users\mediv\Nhap\demo\mpu6050.c" 1
  85  002C              	MOV A,1/4-1
  85  002C              ;# 85 "C:\Users\mediv\Nhap\demo\mpu6050.c" 1
  85  002C              	CALL __DELAYX3 + 3 -(1 MOD 4)
  85  002C              	ENDIF
  85  002C              ;# 85 "C:\Users\mediv\Nhap\demo\mpu6050.c" 1
  85  002C              	IF (1< 0x40B) AND (1> 0403h)
  85  002C              ;# 85 "C:\Users\mediv\Nhap\demo\mpu6050.c" 1
  85  002C              	MOV A,0 
  85  002C              ;# 85 "C:\Users\mediv\Nhap\demo\mpu6050.c" 1
  85  002C              	CALL __DELAYX6 + 0x40a -1
  85  002C              	ENDIF
  85  002C              ;# 85 "C:\Users\mediv\Nhap\demo\mpu6050.c" 1
  85  002C              	IF (1 >= 0x40b) AND ((((1-9)%0402h)/4+1)>256)
  85  002C              ;# 85 "C:\Users\mediv\Nhap\demo\mpu6050.c" 1
  85  002C              	MOV A,(1-9)/0402h
  85  002C              ;# 85 "C:\Users\mediv\Nhap\demo\mpu6050.c" 1
  85  002C              	MOV _builtin_holtek_delay_2,A
  85  002C              ;# 85 "C:\Users\mediv\Nhap\demo\mpu6050.c" 1
  85  002C              	MOV A,0
  85  002C              ;# 85 "C:\Users\mediv\Nhap\demo\mpu6050.c" 1
  85  002C              	CALL __DELAYY5 +5- (((1-9)%0402h)%6)
  85  002C              	ENDIF
  85  002C              ;# 85 "C:\Users\mediv\Nhap\demo\mpu6050.c" 1
  85  002C              	IF (1 >= 0x40b) AND ((((1-9)%0402h)/4+1)<=256)
  85  002C              ;# 85 "C:\Users\mediv\Nhap\demo\mpu6050.c" 1
  85  002C              	MOV A,(1-9)/0402h
  85  002C              ;# 85 "C:\Users\mediv\Nhap\demo\mpu6050.c" 1
  85  002C              	MOV _builtin_holtek_delay_2,A
  85  002C              ;# 85 "C:\Users\mediv\Nhap\demo\mpu6050.c" 1
  85  002C              	MOV A,((1-9)%0402h)/4+1
  85  002C              ;# 85 "C:\Users\mediv\Nhap\demo\mpu6050.c" 1
  85  002C              	CALL __DELAYY3 +3-(((1-9)%0402h)%4)
  85  002C              	ENDIF
  85  002C  2800     R  	jmp _L6
  85  002D              _L5:
  89  002D              #line 89 "C:\Users\mediv\Nhap\demo\mpu6050.c"
  89  002D              ;# 89 "C:\Users\mediv\Nhap\demo\mpu6050.c" 1
  89  002D  0000        	nop
  89  002E              _L6:
  92  002E              #line 92 "C:\Users\mediv\Nhap\demo\mpu6050.c"
  92  002E  0F00     R  	mov a,low offset _Rx_Data
  92  002F  0080     E  	mov rb,a
  92  0030  0F00     R  	mov a,high offset _Rx_Data
"File: mpu6050.c     Assembler  Version HGASM0202      Page 7

  92  0031  0080     E  	mov rc,a
  93  0032              #line 93 "C:\Users\mediv\Nhap\demo\mpu6050.c"
  93  0032  0700     E  	mov a,rb
  93  0033  0003        	ret
  93  0034              _read endp
  93  0034              #line 93 "C:\Users\mediv\Nhap\demo\mpu6050.c"
  93  0034              #pragma debug scope 1 1
   6  0034              #line 6 "C:\Users\mediv\Nhap\demo\mpu6050.c"
   6  0034              public _Rd_CheckSum
   6  0000              @HCCINIT0 .section 'data'
   6  0000              _Rd_CheckSum	db 0
   6  0001              #pragma debug variable 8 1 _Rd_CheckSum "Rd_CheckSum"
   6  0001              
   6  0000              @HCCINIT .section 'data'
   5  0000              #line 5 "C:\Users\mediv\Nhap\demo\mpu6050.c"
   5  0000              public _Rx_Data
   5  0001              @HCCINIT0 .section 'data'
   5  0001  0004[       _Rx_Data	db 4 dup(0)
            00
            ]
   5  0005              #pragma debug array 42 8 4 1
   5  0005              #pragma debug array 42 8 4 1
   5  0005              #pragma debug variable 42 1 _Rx_Data "Rx_Data"
   5  0005              
   5  0000              @HCCINIT .section 'data'
   4  0000              #line 4 "C:\Users\mediv\Nhap\demo\mpu6050.c"
   4  0000              public _Rx_Buff
   4  0005              @HCCINIT0 .section 'data'
   4  0005  0004[       _Rx_Buff	db 4 dup(0)
            00
            ]
   4  0009              #pragma debug variable 42 1 _Rx_Buff "Rx_Buff"
   4  0009              
   4  0000              @HCCINIT .section 'data'
   4  0000              extern _I2C_Start:near
   4  0000              extern _Wr_Byte:near
   4  0000              extern _Check_ACK:near
   4  0000              extern _I2C_Stop:near
   4  0000              extern __delay_ms_2:byte
   4  0000              extern __delay_ms:near
   4  0000              extern _Rd_Byte:near
   4  0000              extern _I2C_Read_2:byte
   4  0000              extern _I2C_Read:near
   4  0000              
   4  0000              ; 
   4  0000              ; Generated by holtek-gcc v3.19, Wed Sep 06 23:59:07 2023
   4  0000              ; Rebuild 718
   4  0000              ; end of file


        0 Errors, 0